---
triple:          'arm64-apple-darwin'
binary-path:     yuv420_to_rgba8888_generate
relocations:
  - { offsetInCU: 0x45, offset: 0x45, size: 0x8, addend: 0x0, symName: __ZN25HalideIntrospectionCanaryL11test_objectE, symObjAddr: 0x16CFC0, symBinAddr: 0x100014000, symSize: 0x0 }
  - { offsetInCU: 0xFE, offset: 0xFE, size: 0x8, addend: 0x0, symName: __ZN25HalideIntrospectionCanaryL4testEPFbPKvRKNSt3__112basic_stringIcNS2_11char_traitsIcEENS2_9allocatorIcEEEEE, symObjAddr: 0x30C, symBinAddr: 0x100000FEC, symSize: 0x15C }
  - { offsetInCU: 0x14A, offset: 0x14A, size: 0x8, addend: 0x0, symName: __ZN25HalideIntrospectionCanaryL6test_aEPKvRKNSt3__112basic_stringIcNS2_11char_traitsIcEENS2_9allocatorIcEEEE, symObjAddr: 0x468, symBinAddr: 0x100001148, symSize: 0x4D4 }
  - { offsetInCU: 0x1A5, offset: 0x1A5, size: 0x8, addend: 0x0, symName: __ZN25HalideIntrospectionCanaryL13offset_markerEv, symObjAddr: 0x93C, symBinAddr: 0x10000161C, symSize: 0x24 }
  - { offsetInCU: 0x1E9, offset: 0x1E9, size: 0x8, addend: 0x0, symName: __ZN25halide_register_generatorL18reg_yuv_to_rgba888E, symObjAddr: 0x16CFC1, symBinAddr: 0x100014001, symSize: 0x0 }
  - { offsetInCU: 0x1FB, offset: 0x1FB, size: 0x8, addend: 0x0, symName: __ZN25halide_register_generator17yuv_to_rgba888_ns7factoryERKN6Halide16GeneratorContextE, symObjAddr: 0x2C, symBinAddr: 0x100000D0C, symSize: 0xCC }
  - { offsetInCU: 0x799F, offset: 0x799F, size: 0x8, addend: 0x0, symName: __ZN6Halide8Internal13Introspection24get_introspection_helperIN12_GLOBAL__N_112YuvToRgba888EEEPKvv, symObjAddr: 0x33E4, symBinAddr: 0x1000040C4, symSize: 0xC }
  - { offsetInCU: 0x79CA, offset: 0x79CA, size: 0x8, addend: 0x0, symName: __ZZN6Halide8Internal13Introspection24get_introspection_helperIN12_GLOBAL__N_112YuvToRgba888EEEPKvvE20introspection_helper, symObjAddr: 0x16CFC8, symBinAddr: 0x100014008, symSize: 0x0 }
  - { offsetInCU: 0x9972, offset: 0x9972, size: 0x8, addend: 0x0, symName: __ZN6Halide8InternalL19check_introspectionEPKvRKNSt3__112basic_stringIcNS3_11char_traitsIcEENS3_9allocatorIcEEEESB_SB_i, symObjAddr: 0xA20, symBinAddr: 0x100001700, symSize: 0x15C }
  - { offsetInCU: 0x9A09, offset: 0x9A09, size: 0x8, addend: 0x0, symName: __ZN6Halide8Internal9ref_countINS0_6IRNodeEEERNS0_8RefCountEPKT_, symObjAddr: 0x8B6C, symBinAddr: 0x10000984C, symSize: 0x18 }
  - { offsetInCU: 0x9A40, offset: 0x9A40, size: 0x8, addend: 0x0, symName: __ZN6Halide8Internal7destroyINS0_6IRNodeEEEvPKT_, symObjAddr: 0x8BA8, symBinAddr: 0x100009888, symSize: 0x48 }
  - { offsetInCU: 0x1311B, offset: 0x1311B, size: 0x8, addend: 0x0, symName: __ZN6HalidemlEfNS_4ExprE, symObjAddr: 0x6724, symBinAddr: 0x100007404, symSize: 0x98 }
  - { offsetInCU: 0x13159, offset: 0x13159, size: 0x8, addend: 0x0, symName: __ZN6Halide4castIsEENS_4ExprES1_, symObjAddr: 0x6970, symBinAddr: 0x100007650, symSize: 0x88 }
  - { offsetInCU: 0x13191, offset: 0x13191, size: 0x8, addend: 0x0, symName: __ZN6Halide7type_ofIsEENS_4TypeEv, symObjAddr: 0x69F8, symBinAddr: 0x1000076D8, symSize: 0xB8 }
  - { offsetInCU: 0x132A1, offset: 0x132A1, size: 0x8, addend: 0x0, symName: __ZN6Halide4castIjEENS_4ExprES1_, symObjAddr: 0xA6E4, symBinAddr: 0x10000B3C4, symSize: 0x88 }
  - { offsetInCU: 0x132D9, offset: 0x132D9, size: 0x8, addend: 0x0, symName: __ZN6Halide7type_ofIjEENS_4TypeEv, symObjAddr: 0xA76C, symBinAddr: 0x10000B44C, symSize: 0xBC }
  - { offsetInCU: 0x133E9, offset: 0x133E9, size: 0x8, addend: 0x0, symName: __ZN6Halide5FloatEii, symObjAddr: 0xA8E0, symBinAddr: 0x10000B5C0, symSize: 0x40 }
  - { offsetInCU: 0x13426, offset: 0x13426, size: 0x8, addend: 0x0, symName: __ZN6Halide3IntEii, symObjAddr: 0xAA74, symBinAddr: 0x10000B754, symSize: 0x40 }
  - { offsetInCU: 0x3053F, offset: 0x3053F, size: 0x8, addend: 0x0, symName: __ZNSt3__110__function10__not_nullB7v160006IFNS_10unique_ptrIN6Halide8Internal17AbstractGeneratorENS_14default_deleteIS5_EEEERKNS3_16GeneratorContextEEEEbPT_, symObjAddr: 0xBA40, symBinAddr: 0x10000C720, symSize: 0x20 }
  - { offsetInCU: 0x40DEA, offset: 0x40DEA, size: 0x8, addend: 0x0, symName: __ZNSt3__1L19piecewise_constructE, symObjAddr: 0xE5F6, symBinAddr: 0x10000F524, symSize: 0x0 }
  - { offsetInCU: 0x42A32, offset: 0x42A32, size: 0x8, addend: 0x0, symName: __ZNSt3__16copy_nB7v160006IPKcmPcEENS_9enable_ifIXsr33__is_cpp17_random_access_iteratorIT_EE5valueET1_E4typeES5_T0_S6_, symObjAddr: 0x1CE4, symBinAddr: 0x1000029C4, symSize: 0x44 }
  - { offsetInCU: 0x42ABA, offset: 0x42ABA, size: 0x8, addend: 0x0, symName: __ZNSt3__124__put_character_sequenceB7v160006IcNS_11char_traitsIcEEEERNS_13basic_ostreamIT_T0_EES7_PKS4_m, symObjAddr: 0x2488, symBinAddr: 0x100003168, symSize: 0x1EC }
  - { offsetInCU: 0x455E0, offset: 0x455E0, size: 0x8, addend: 0x0, symName: __ZNSt3__1plB7v160006IcNS_11char_traitsIcEENS_9allocatorIcEEEENS_12basic_stringIT_T0_T1_EERKS9_PKS6_, symObjAddr: 0xB7C, symBinAddr: 0x10000185C, symSize: 0x11C }
  - { offsetInCU: 0x45681, offset: 0x45681, size: 0x8, addend: 0x0, symName: __ZNSt3__1plB7v160006IcNS_11char_traitsIcEENS_9allocatorIcEEEENS_12basic_stringIT_T0_T1_EEOS9_SA_, symObjAddr: 0xC98, symBinAddr: 0x100001978, symSize: 0x40 }
  - { offsetInCU: 0x456D9, offset: 0x456D9, size: 0x8, addend: 0x0, symName: __ZNSt3__1eqB7v160006INS_9allocatorIcEEEEbRKNS_12basic_stringIcNS_11char_traitsIcEET_EES9_, symObjAddr: 0xCD8, symBinAddr: 0x1000019B8, symSize: 0x148 }
  - { offsetInCU: 0x4574D, offset: 0x4574D, size: 0x8, addend: 0x0, symName: __ZNSt3__112__to_addressB7v160006IKcEEPT_S3_, symObjAddr: 0xF1C, symBinAddr: 0x100001BFC, symSize: 0x14 }
  - { offsetInCU: 0x457B6, offset: 0x457B6, size: 0x8, addend: 0x0, symName: __ZNSt3__119__debug_db_insert_cB7v160006INS_12basic_stringIcNS_11char_traitsIcEENS_9allocatorIcEEEEEEvPT_, symObjAddr: 0x1188, symBinAddr: 0x100001E68, symSize: 0x10 }
  - { offsetInCU: 0x457E8, offset: 0x457E8, size: 0x8, addend: 0x0, symName: __ZNSt3__115__debug_db_swapB7v160006INS_12basic_stringIcNS_11char_traitsIcEENS_9allocatorIcEEEEEEvPT_S8_, symObjAddr: 0x1198, symBinAddr: 0x100001E78, symSize: 0x14 }
  - { offsetInCU: 0x45827, offset: 0x45827, size: 0x8, addend: 0x0, symName: __ZNSt3__118__constexpr_memcmpB7v160006IcEEiPKT_S3_m, symObjAddr: 0x1250, symBinAddr: 0x100001F30, symSize: 0x34 }
  - { offsetInCU: 0x45879, offset: 0x45879, size: 0x8, addend: 0x0, symName: __ZNSt3__112__to_addressB7v160006IcEEPT_S2_, symObjAddr: 0x1328, symBinAddr: 0x100002008, symSize: 0x14 }
  - { offsetInCU: 0x458AE, offset: 0x458AE, size: 0x8, addend: 0x0, symName: __ZNSt3__118__constexpr_strlenB7v160006EPKc, symObjAddr: 0x1430, symBinAddr: 0x100002110, symSize: 0x24 }
  - { offsetInCU: 0x45AC7, offset: 0x45AC7, size: 0x8, addend: 0x0, symName: __ZNSt3__120__throw_length_errorB7v160006EPKc, symObjAddr: 0x19EC, symBinAddr: 0x1000026CC, symSize: 0x64 }
  - { offsetInCU: 0x45AEF, offset: 0x45AEF, size: 0x8, addend: 0x0, symName: __ZNSt3__117__libcpp_allocateB7v160006Emm, symObjAddr: 0x1B78, symBinAddr: 0x100002858, symSize: 0x60 }
  - { offsetInCU: 0x45B4A, offset: 0x45B4A, size: 0x8, addend: 0x0, symName: __ZNSt3__124__is_overaligned_for_newB7v160006Em, symObjAddr: 0x1BD8, symBinAddr: 0x1000028B8, symSize: 0x20 }
  - { offsetInCU: 0x45B78, offset: 0x45B78, size: 0x8, addend: 0x0, symName: __ZNSt3__121__libcpp_operator_newB7v160006IJmSt11align_val_tEEEPvDpT_, symObjAddr: 0x1BF8, symBinAddr: 0x1000028D8, symSize: 0x2C }
  - { offsetInCU: 0x45BC5, offset: 0x45BC5, size: 0x8, addend: 0x0, symName: __ZNSt3__121__libcpp_operator_newB7v160006IJmEEEPvDpT_, symObjAddr: 0x1C24, symBinAddr: 0x100002904, symSize: 0x24 }
  - { offsetInCU: 0x45C31, offset: 0x45C31, size: 0x8, addend: 0x0, symName: __ZNSt3__14copyB7v160006IPKcPcEET0_T_S5_S4_, symObjAddr: 0x1D28, symBinAddr: 0x100002A08, symSize: 0x40 }
  - { offsetInCU: 0x45C8B, offset: 0x45C8B, size: 0x8, addend: 0x0, symName: __ZNSt3__16__copyB7v160006INS_17_ClassicAlgPolicyEPKcS3_PcEENS_4pairIT0_T2_EES6_T1_S7_, symObjAddr: 0x1D68, symBinAddr: 0x100002A48, symSize: 0x44 }
  - { offsetInCU: 0x45CF7, offset: 0x45CF7, size: 0x8, addend: 0x0, symName: __ZNSt3__123__dispatch_copy_or_moveB7v160006INS_17_ClassicAlgPolicyENS_11__copy_loopIS1_EENS_14__copy_trivialEPKcS6_PcEENS_4pairIT2_T4_EES9_T3_SA_, symObjAddr: 0x1DAC, symBinAddr: 0x100002A8C, symSize: 0x44 }
  - { offsetInCU: 0x45D75, offset: 0x45D75, size: 0x8, addend: 0x0, symName: __ZNSt3__121__unwrap_and_dispatchB7v160006INS_10__overloadINS_11__copy_loopINS_17_ClassicAlgPolicyEEENS_14__copy_trivialEEEPKcS8_PcLi0EEENS_4pairIT0_T2_EESB_T1_SC_, symObjAddr: 0x1DF0, symBinAddr: 0x100002AD0, symSize: 0xB4 }
  - { offsetInCU: 0x45E05, offset: 0x45E05, size: 0x8, addend: 0x0, symName: __ZNSt3__114__unwrap_rangeB7v160006IPKcS2_EENS_4pairIT0_S4_EET_S6_, symObjAddr: 0x1EA4, symBinAddr: 0x100002B84, symSize: 0x60 }
  - { offsetInCU: 0x45FD6, offset: 0x45FD6, size: 0x8, addend: 0x0, symName: __ZNSt3__113__unwrap_iterB7v160006IPcNS_18__unwrap_iter_implIS1_Lb1EEELi0EEEDTclsrT0_8__unwrapclsr3stdE7declvalIT_EEEES5_, symObjAddr: 0x1F4C, symBinAddr: 0x100002C2C, symSize: 0x24 }
  - { offsetInCU: 0x4601A, offset: 0x4601A, size: 0x8, addend: 0x0, symName: __ZNSt3__19make_pairB7v160006IPKcPcEENS_4pairINS_18__unwrap_ref_decayIT_E4typeENS5_IT0_E4typeEEEOS6_OS9_, symObjAddr: 0x1F70, symBinAddr: 0x100002C50, symSize: 0x38 }
  - { offsetInCU: 0x46069, offset: 0x46069, size: 0x8, addend: 0x0, symName: __ZNSt3__114__rewrap_rangeB7v160006IPKcS2_EET_S3_T0_, symObjAddr: 0x1FA8, symBinAddr: 0x100002C88, symSize: 0x2C }
  - { offsetInCU: 0x460B5, offset: 0x460B5, size: 0x8, addend: 0x0, symName: __ZNSt3__113__rewrap_iterB7v160006IPcS1_NS_18__unwrap_iter_implIS1_Lb1EEEEET_S4_T0_, symObjAddr: 0x1FD4, symBinAddr: 0x100002CB4, symSize: 0x3C }
  - { offsetInCU: 0x4610A, offset: 0x4610A, size: 0x8, addend: 0x0, symName: __ZNSt3__19make_pairB7v160006IPKcS2_EENS_4pairINS_18__unwrap_ref_decayIT_E4typeENS4_IT0_E4typeEEEOS5_OS8_, symObjAddr: 0x2010, symBinAddr: 0x100002CF0, symSize: 0x38 }
  - { offsetInCU: 0x46159, offset: 0x46159, size: 0x8, addend: 0x0, symName: __ZNSt3__113__unwrap_iterB7v160006IPKcNS_18__unwrap_iter_implIS2_Lb1EEELi0EEEDTclsrT0_8__unwrapclsr3stdE7declvalIT_EEEES6_, symObjAddr: 0x2048, symBinAddr: 0x100002D28, symSize: 0x24 }
  - { offsetInCU: 0x462C4, offset: 0x462C4, size: 0x8, addend: 0x0, symName: __ZNSt3__119__copy_trivial_implB7v160006IKccEENS_4pairIPT_PT0_EES4_S4_S6_, symObjAddr: 0x2100, symBinAddr: 0x100002DE0, symSize: 0x7C }
  - { offsetInCU: 0x4632D, offset: 0x4632D, size: 0x8, addend: 0x0, symName: __ZNSt3__19make_pairB7v160006IRPKcPcEENS_4pairINS_18__unwrap_ref_decayIT_E4typeENS6_IT0_E4typeEEEOS7_OSA_, symObjAddr: 0x217C, symBinAddr: 0x100002E5C, symSize: 0x38 }
  - { offsetInCU: 0x463CF, offset: 0x463CF, size: 0x8, addend: 0x0, symName: __ZNSt3__113__rewrap_iterB7v160006IPKcS2_NS_18__unwrap_iter_implIS2_Lb1EEEEET_S5_T0_, symObjAddr: 0x22B8, symBinAddr: 0x100002F98, symSize: 0x3C }
  - { offsetInCU: 0x46424, offset: 0x46424, size: 0x8, addend: 0x0, symName: __ZNSt3__16fill_nB7v160006IPcmcEET_S2_T0_RKT1_, symObjAddr: 0x2384, symBinAddr: 0x100003064, symSize: 0x44 }
  - { offsetInCU: 0x46488, offset: 0x46488, size: 0x8, addend: 0x0, symName: __ZNSt3__18__fill_nB7v160006IPcmcEET_S2_T0_RKT1_, symObjAddr: 0x23C8, symBinAddr: 0x1000030A8, symSize: 0x64 }
  - { offsetInCU: 0x464EC, offset: 0x464EC, size: 0x8, addend: 0x0, symName: __ZNSt3__121__convert_to_integralB7v160006Em, symObjAddr: 0x242C, symBinAddr: 0x10000310C, symSize: 0x14 }
  - { offsetInCU: 0x46518, offset: 0x46518, size: 0x8, addend: 0x0, symName: __ZNSt3__1lsB7v160006INS_11char_traitsIcEEEERNS_13basic_ostreamIcT_EES6_PKc, symObjAddr: 0x2440, symBinAddr: 0x100003120, symSize: 0x48 }
  - { offsetInCU: 0x4655E, offset: 0x4655E, size: 0x8, addend: 0x0, symName: __ZNSt3__116__pad_and_outputB7v160006IcNS_11char_traitsIcEEEENS_19ostreambuf_iteratorIT_T0_EES6_PKS4_S8_S8_RNS_8ios_baseES4_, symObjAddr: 0x2690, symBinAddr: 0x100003370, symSize: 0x240 }
  - { offsetInCU: 0x4662E, offset: 0x4662E, size: 0x8, addend: 0x0, symName: __ZNSt3__19use_facetB7v160006INS_5ctypeIcEEEERKT_RKNS_6localeE, symObjAddr: 0x2D30, symBinAddr: 0x100003A10, symSize: 0x2C }
  - { offsetInCU: 0x46AFD, offset: 0x46AFD, size: 0x8, addend: 0x0, symName: __ZNSt3__111make_uniqueB7v160006IN12_GLOBAL__N_112YuvToRgba888EJEEENS_11__unique_ifIT_E15__unique_singleEDpOT0_, symObjAddr: 0x2EF4, symBinAddr: 0x100003BD4, symSize: 0x74 }
  - { offsetInCU: 0x46B2A, offset: 0x46B2A, size: 0x8, addend: 0x0, symName: __ZNSt3__122__make_exception_guardB7v160006INS_6vectorIN6Halide4TypeENS_9allocatorIS3_EEE16__destroy_vectorEEENS_28__exception_guard_exceptionsIT_EES9_, symObjAddr: 0x3AC8, symBinAddr: 0x1000047A8, symSize: 0x40 }
  - { offsetInCU: 0x46B60, offset: 0x46B60, size: 0x8, addend: 0x0, symName: __ZNSt3__119__debug_db_insert_cB7v160006INS_6vectorIN6Halide4TypeENS_9allocatorIS3_EEEEEEvPT_, symObjAddr: 0x3B3C, symBinAddr: 0x10000481C, symSize: 0x10 }
  - { offsetInCU: 0x46B91, offset: 0x46B91, size: 0x8, addend: 0x0, symName: __ZNSt3__119__allocate_at_leastB7v160006INS_9allocatorIN6Halide4TypeEEEEENS_19__allocation_resultINS_16allocator_traitsIT_E7pointerEEERS7_m, symObjAddr: 0x3ED8, symBinAddr: 0x100004BB8, symSize: 0x40 }
  - { offsetInCU: 0x46BD4, offset: 0x46BD4, size: 0x8, addend: 0x0, symName: __ZNSt3__13minB7v160006ImEERKT_S3_S3_, symObjAddr: 0x4014, symBinAddr: 0x100004CF4, symSize: 0x2C }
  - { offsetInCU: 0x46E01, offset: 0x46E01, size: 0x8, addend: 0x0, symName: __ZNSt3__13minB7v160006ImNS_6__lessImmEEEERKT_S5_S5_T0_, symObjAddr: 0x40A0, symBinAddr: 0x100004D80, symSize: 0x54 }
  - { offsetInCU: 0x46E97, offset: 0x46E97, size: 0x8, addend: 0x0, symName: __ZNSt3__112__to_addressB7v160006IN6Halide4TypeEEEPT_S4_, symObjAddr: 0x42CC, symBinAddr: 0x100004FAC, symSize: 0x14 }
  - { offsetInCU: 0x46ECC, offset: 0x46ECC, size: 0x8, addend: 0x0, symName: __ZNSt3__130__uninitialized_allocator_copyB7v160006INS_9allocatorIN6Halide4TypeEEES3_S3_LPv0EEEPT0_RT_PKS6_SB_S7_, symObjAddr: 0x437C, symBinAddr: 0x10000505C, symSize: 0x38 }
  - { offsetInCU: 0x46F45, offset: 0x46F45, size: 0x8, addend: 0x0, symName: __ZNSt3__14copyB7v160006IPKN6Halide4TypeEPS2_EET0_T_S7_S6_, symObjAddr: 0x4424, symBinAddr: 0x100005104, symSize: 0x40 }
  - { offsetInCU: 0x46F9F, offset: 0x46F9F, size: 0x8, addend: 0x0, symName: __ZNSt3__16__copyB7v160006INS_17_ClassicAlgPolicyEPKN6Halide4TypeES5_PS3_EENS_4pairIT0_T2_EES8_T1_S9_, symObjAddr: 0x4464, symBinAddr: 0x100005144, symSize: 0x44 }
  - { offsetInCU: 0x4700B, offset: 0x4700B, size: 0x8, addend: 0x0, symName: __ZNSt3__123__dispatch_copy_or_moveB7v160006INS_17_ClassicAlgPolicyENS_11__copy_loopIS1_EENS_14__copy_trivialEPKN6Halide4TypeES8_PS6_EENS_4pairIT2_T4_EESB_T3_SC_, symObjAddr: 0x44A8, symBinAddr: 0x100005188, symSize: 0x44 }
  - { offsetInCU: 0x47089, offset: 0x47089, size: 0x8, addend: 0x0, symName: __ZNSt3__121__unwrap_and_dispatchB7v160006INS_10__overloadINS_11__copy_loopINS_17_ClassicAlgPolicyEEENS_14__copy_trivialEEEPKN6Halide4TypeESA_PS8_Li0EEENS_4pairIT0_T2_EESD_T1_SE_, symObjAddr: 0x44EC, symBinAddr: 0x1000051CC, symSize: 0xB4 }
  - { offsetInCU: 0x47119, offset: 0x47119, size: 0x8, addend: 0x0, symName: __ZNSt3__114__unwrap_rangeB7v160006IPKN6Halide4TypeES4_EENS_4pairIT0_S6_EET_S8_, symObjAddr: 0x45A0, symBinAddr: 0x100005280, symSize: 0x60 }
  - { offsetInCU: 0x47268, offset: 0x47268, size: 0x8, addend: 0x0, symName: __ZNSt3__113__unwrap_iterB7v160006IPN6Halide4TypeENS_18__unwrap_iter_implIS3_Lb1EEELi0EEEDTclsrT0_8__unwrapclsr3stdE7declvalIT_EEEES7_, symObjAddr: 0x4648, symBinAddr: 0x100005328, symSize: 0x24 }
  - { offsetInCU: 0x472AC, offset: 0x472AC, size: 0x8, addend: 0x0, symName: __ZNSt3__19make_pairB7v160006IPKN6Halide4TypeEPS2_EENS_4pairINS_18__unwrap_ref_decayIT_E4typeENS7_IT0_E4typeEEEOS8_OSB_, symObjAddr: 0x466C, symBinAddr: 0x10000534C, symSize: 0x38 }
  - { offsetInCU: 0x472FB, offset: 0x472FB, size: 0x8, addend: 0x0, symName: __ZNSt3__114__rewrap_rangeB7v160006IPKN6Halide4TypeES4_EET_S5_T0_, symObjAddr: 0x46A4, symBinAddr: 0x100005384, symSize: 0x2C }
  - { offsetInCU: 0x47347, offset: 0x47347, size: 0x8, addend: 0x0, symName: __ZNSt3__113__rewrap_iterB7v160006IPN6Halide4TypeES3_NS_18__unwrap_iter_implIS3_Lb1EEEEET_S6_T0_, symObjAddr: 0x46D0, symBinAddr: 0x1000053B0, symSize: 0x3C }
  - { offsetInCU: 0x4739C, offset: 0x4739C, size: 0x8, addend: 0x0, symName: __ZNSt3__19make_pairB7v160006IPKN6Halide4TypeES4_EENS_4pairINS_18__unwrap_ref_decayIT_E4typeENS6_IT0_E4typeEEEOS7_OSA_, symObjAddr: 0x470C, symBinAddr: 0x1000053EC, symSize: 0x38 }
  - { offsetInCU: 0x473EB, offset: 0x473EB, size: 0x8, addend: 0x0, symName: __ZNSt3__113__unwrap_iterB7v160006IPKN6Halide4TypeENS_18__unwrap_iter_implIS4_Lb1EEELi0EEEDTclsrT0_8__unwrapclsr3stdE7declvalIT_EEEES8_, symObjAddr: 0x4744, symBinAddr: 0x100005424, symSize: 0x24 }
  - { offsetInCU: 0x47557, offset: 0x47557, size: 0x8, addend: 0x0, symName: __ZNSt3__112__to_addressB7v160006IKN6Halide4TypeEEEPT_S5_, symObjAddr: 0x47FC, symBinAddr: 0x1000054DC, symSize: 0x14 }
  - { offsetInCU: 0x4758C, offset: 0x4758C, size: 0x8, addend: 0x0, symName: __ZNSt3__119__copy_trivial_implB7v160006IKN6Halide4TypeES2_EENS_4pairIPT_PT0_EES6_S6_S8_, symObjAddr: 0x4810, symBinAddr: 0x1000054F0, symSize: 0x84 }
  - { offsetInCU: 0x475F5, offset: 0x475F5, size: 0x8, addend: 0x0, symName: __ZNSt3__19make_pairB7v160006IRPKN6Halide4TypeEPS2_EENS_4pairINS_18__unwrap_ref_decayIT_E4typeENS8_IT0_E4typeEEEOS9_OSC_, symObjAddr: 0x4894, symBinAddr: 0x100005574, symSize: 0x38 }
  - { offsetInCU: 0x47697, offset: 0x47697, size: 0x8, addend: 0x0, symName: __ZNSt3__113__rewrap_iterB7v160006IPKN6Halide4TypeES4_NS_18__unwrap_iter_implIS4_Lb1EEEEET_S7_T0_, symObjAddr: 0x49D0, symBinAddr: 0x1000056B0, symSize: 0x3C }
  - { offsetInCU: 0x476ED, offset: 0x476ED, size: 0x8, addend: 0x0, symName: __ZNSt3__118__debug_db_erase_cB7v160006INS_6vectorIN6Halide4TypeENS_9allocatorIS3_EEEEEEvPT_, symObjAddr: 0x4C70, symBinAddr: 0x100005950, symSize: 0x10 }
  - { offsetInCU: 0x4771E, offset: 0x4771E, size: 0x8, addend: 0x0, symName: __ZNSt3__119__libcpp_deallocateB7v160006EPvmm, symObjAddr: 0x4E10, symBinAddr: 0x100005AF0, symSize: 0x60 }
  - { offsetInCU: 0x47784, offset: 0x47784, size: 0x8, addend: 0x0, symName: __ZNSt3__127__do_deallocate_handle_sizeB7v160006IJSt11align_val_tEEEvPvmDpT_, symObjAddr: 0x4E70, symBinAddr: 0x100005B50, symSize: 0x30 }
  - { offsetInCU: 0x477D7, offset: 0x477D7, size: 0x8, addend: 0x0, symName: __ZNSt3__127__do_deallocate_handle_sizeB7v160006IJEEEvPvmDpT_, symObjAddr: 0x4EA0, symBinAddr: 0x100005B80, symSize: 0x28 }
  - { offsetInCU: 0x47815, offset: 0x47815, size: 0x8, addend: 0x0, symName: __ZNSt3__124__libcpp_operator_deleteB7v160006IJPvSt11align_val_tEEEvDpT_, symObjAddr: 0x4EC8, symBinAddr: 0x100005BA8, symSize: 0x2C }
  - { offsetInCU: 0x4785E, offset: 0x4785E, size: 0x8, addend: 0x0, symName: __ZNSt3__124__libcpp_operator_deleteB7v160006IJPvEEEvDpT_, symObjAddr: 0x4EF4, symBinAddr: 0x100005BD4, symSize: 0x24 }
  - { offsetInCU: 0x47893, offset: 0x47893, size: 0x8, addend: 0x0, symName: __ZNSt3__1plB7v160006IcNS_11char_traitsIcEENS_9allocatorIcEEEENS_12basic_stringIT_T0_T1_EEOS9_PKS6_, symObjAddr: 0x5030, symBinAddr: 0x100005D10, symSize: 0x40 }
  - { offsetInCU: 0x478EB, offset: 0x478EB, size: 0x8, addend: 0x0, symName: __ZNSt3__1plB7v160006IcNS_11char_traitsIcEENS_9allocatorIcEEEENS_12basic_stringIT_T0_T1_EEPKS6_OS9_, symObjAddr: 0x5070, symBinAddr: 0x100005D50, symSize: 0x44 }
  - { offsetInCU: 0x47968, offset: 0x47968, size: 0x8, addend: 0x0, symName: __ZNSt3__120__throw_out_of_rangeB7v160006EPKc, symObjAddr: 0x6E2C, symBinAddr: 0x100007B0C, symSize: 0x64 }
  - { offsetInCU: 0x47992, offset: 0x47992, size: 0x8, addend: 0x0, symName: __ZNSt3__122__cxx_atomic_fetch_addB7v160006IiEET_PNS_22__cxx_atomic_base_implIS1_EES1_NS_12memory_orderE, symObjAddr: 0x7170, symBinAddr: 0x100007E50, symSize: 0xC4 }
  - { offsetInCU: 0x479E7, offset: 0x479E7, size: 0x8, addend: 0x0, symName: __ZNSt3__122__make_exception_guardB7v160006INS_6vectorIN6Halide3VarENS_9allocatorIS3_EEE16__destroy_vectorEEENS_28__exception_guard_exceptionsIT_EES9_, symObjAddr: 0x7558, symBinAddr: 0x100008238, symSize: 0x40 }
  - { offsetInCU: 0x47A1D, offset: 0x47A1D, size: 0x8, addend: 0x0, symName: __ZNSt3__119__debug_db_insert_cB7v160006INS_6vectorIN6Halide3VarENS_9allocatorIS3_EEEEEEvPT_, symObjAddr: 0x75CC, symBinAddr: 0x1000082AC, symSize: 0x10 }
  - { offsetInCU: 0x47A4E, offset: 0x47A4E, size: 0x8, addend: 0x0, symName: __ZNSt3__119__allocate_at_leastB7v160006INS_9allocatorIN6Halide3VarEEEEENS_19__allocation_resultINS_16allocator_traitsIT_E7pointerEEERS7_m, symObjAddr: 0x7968, symBinAddr: 0x100008648, symSize: 0x40 }
  - { offsetInCU: 0x47A92, offset: 0x47A92, size: 0x8, addend: 0x0, symName: __ZNSt3__112__to_addressB7v160006IN6Halide3VarEEEPT_S4_, symObjAddr: 0x7C8C, symBinAddr: 0x10000896C, symSize: 0x14 }
  - { offsetInCU: 0x47AC7, offset: 0x47AC7, size: 0x8, addend: 0x0, symName: __ZNSt3__130__uninitialized_allocator_copyB7v160006INS_9allocatorIN6Halide3VarEEEPKS3_S6_PS3_EET2_RT_T0_T1_S8_, symObjAddr: 0x7D3C, symBinAddr: 0x100008A1C, symSize: 0xF4 }
  - { offsetInCU: 0x47B65, offset: 0x47B65, size: 0x8, addend: 0x0, symName: __ZNSt3__122__make_exception_guardB7v160006INS_29_AllocatorDestroyRangeReverseINS_9allocatorIN6Halide3VarEEEPS4_EEEENS_28__exception_guard_exceptionsIT_EES9_, symObjAddr: 0x7EA0, symBinAddr: 0x100008B80, symSize: 0x4C }
  - { offsetInCU: 0x47B9B, offset: 0x47B9B, size: 0x8, addend: 0x0, symName: __ZNSt3__119__allocator_destroyB7v160006INS_9allocatorIN6Halide3VarEEENS_16reverse_iteratorIPS3_EES7_EEvRT_T0_T1_, symObjAddr: 0x8130, symBinAddr: 0x100008E10, symSize: 0x70 }
  - { offsetInCU: 0x47BFE, offset: 0x47BFE, size: 0x8, addend: 0x0, symName: __ZNSt3__1neB7v160006IPN6Halide3VarES3_EEbRKNS_16reverse_iteratorIT_EERKNS4_IT0_EE, symObjAddr: 0x81D4, symBinAddr: 0x100008EB4, symSize: 0x48 }
  - { offsetInCU: 0x47C4A, offset: 0x47C4A, size: 0x8, addend: 0x0, symName: __ZNSt3__112__to_addressB7v160006INS_16reverse_iteratorIPN6Halide3VarEEEvEENS_5decayIDTclsr19__to_address_helperIT_EE6__callclsr3stdE7declvalIRKS7_EEEEE4typeES9_, symObjAddr: 0x8248, symBinAddr: 0x100008F28, symSize: 0x24 }
  - { offsetInCU: 0x47CAB, offset: 0x47CAB, size: 0x8, addend: 0x0, symName: __ZNSt3__118__debug_db_erase_cB7v160006INS_6vectorIN6Halide3VarENS_9allocatorIS3_EEEEEEvPT_, symObjAddr: 0x853C, symBinAddr: 0x10000921C, symSize: 0x10 }
  - { offsetInCU: 0x47CDC, offset: 0x47CDC, size: 0x8, addend: 0x0, symName: __ZNSt3__130__uninitialized_allocator_copyB7v160006INS_9allocatorIN6Halide3VarEEEPS3_S5_S5_EET2_RT_T0_T1_S6_, symObjAddr: 0x88E0, symBinAddr: 0x1000095C0, symSize: 0xF4 }
  - { offsetInCU: 0x47D7A, offset: 0x47D7A, size: 0x8, addend: 0x0, symName: __ZNSt3__122__cxx_atomic_fetch_subB7v160006IiEET_PNS_22__cxx_atomic_base_implIS1_EES1_NS_12memory_orderE, symObjAddr: 0x8C54, symBinAddr: 0x100009934, symSize: 0xD8 }
  - { offsetInCU: 0x47DCF, offset: 0x47DCF, size: 0x8, addend: 0x0, symName: __ZNSt3__122__make_exception_guardB7v160006INS_6vectorIN6Halide4ExprENS_9allocatorIS3_EEE16__destroy_vectorEEENS_28__exception_guard_exceptionsIT_EES9_, symObjAddr: 0x90F0, symBinAddr: 0x100009DD0, symSize: 0x40 }
  - { offsetInCU: 0x47E05, offset: 0x47E05, size: 0x8, addend: 0x0, symName: __ZNSt3__119__debug_db_insert_cB7v160006INS_6vectorIN6Halide4ExprENS_9allocatorIS3_EEEEEEvPT_, symObjAddr: 0x9164, symBinAddr: 0x100009E44, symSize: 0x10 }
  - { offsetInCU: 0x47E36, offset: 0x47E36, size: 0x8, addend: 0x0, symName: __ZNSt3__119__allocate_at_leastB7v160006INS_9allocatorIN6Halide4ExprEEEEENS_19__allocation_resultINS_16allocator_traitsIT_E7pointerEEERS7_m, symObjAddr: 0x9500, symBinAddr: 0x10000A1E0, symSize: 0x40 }
  - { offsetInCU: 0x47E7A, offset: 0x47E7A, size: 0x8, addend: 0x0, symName: __ZNSt3__112__to_addressB7v160006IN6Halide4ExprEEEPT_S4_, symObjAddr: 0x9824, symBinAddr: 0x10000A504, symSize: 0x14 }
  - { offsetInCU: 0x47EAF, offset: 0x47EAF, size: 0x8, addend: 0x0, symName: __ZNSt3__130__uninitialized_allocator_copyB7v160006INS_9allocatorIN6Halide4ExprEEEPKS3_S6_PS3_EET2_RT_T0_T1_S8_, symObjAddr: 0x98D4, symBinAddr: 0x10000A5B4, symSize: 0xF4 }
  - { offsetInCU: 0x47F4D, offset: 0x47F4D, size: 0x8, addend: 0x0, symName: __ZNSt3__122__make_exception_guardB7v160006INS_29_AllocatorDestroyRangeReverseINS_9allocatorIN6Halide4ExprEEEPS4_EEEENS_28__exception_guard_exceptionsIT_EES9_, symObjAddr: 0x9A38, symBinAddr: 0x10000A718, symSize: 0x4C }
  - { offsetInCU: 0x47F83, offset: 0x47F83, size: 0x8, addend: 0x0, symName: __ZNSt3__119__allocator_destroyB7v160006INS_9allocatorIN6Halide4ExprEEENS_16reverse_iteratorIPS3_EES7_EEvRT_T0_T1_, symObjAddr: 0x9CC8, symBinAddr: 0x10000A9A8, symSize: 0x70 }
  - { offsetInCU: 0x47FE6, offset: 0x47FE6, size: 0x8, addend: 0x0, symName: __ZNSt3__1neB7v160006IPN6Halide4ExprES3_EEbRKNS_16reverse_iteratorIT_EERKNS4_IT0_EE, symObjAddr: 0x9D6C, symBinAddr: 0x10000AA4C, symSize: 0x48 }
  - { offsetInCU: 0x48032, offset: 0x48032, size: 0x8, addend: 0x0, symName: __ZNSt3__112__to_addressB7v160006INS_16reverse_iteratorIPN6Halide4ExprEEEvEENS_5decayIDTclsr19__to_address_helperIT_EE6__callclsr3stdE7declvalIRKS7_EEEEE4typeES9_, symObjAddr: 0x9DE0, symBinAddr: 0x10000AAC0, symSize: 0x24 }
  - { offsetInCU: 0x48093, offset: 0x48093, size: 0x8, addend: 0x0, symName: __ZNSt3__118__debug_db_erase_cB7v160006INS_6vectorIN6Halide4ExprENS_9allocatorIS3_EEEEEEvPT_, symObjAddr: 0xA0D4, symBinAddr: 0x10000ADB4, symSize: 0x10 }
  - { offsetInCU: 0x480C4, offset: 0x480C4, size: 0x8, addend: 0x0, symName: __ZNSt3__130__uninitialized_allocator_copyB7v160006INS_9allocatorIN6Halide4ExprEEEPS3_S5_S5_EET2_RT_T0_T1_S6_, symObjAddr: 0xA478, symBinAddr: 0x10000B158, symSize: 0xF4 }
  - { offsetInCU: 0x482E2, offset: 0x482E2, size: 0x8, addend: 0x0, symName: __ZNSt3__116forward_as_tupleB7v160006IJPFNS_10unique_ptrIN6Halide8Internal17AbstractGeneratorENS_14default_deleteIS4_EEEERKNS2_16GeneratorContextEEEEENS_5tupleIJDpOT_EEESG_, symObjAddr: 0xBFD0, symBinAddr: 0x10000CCB0, symSize: 0x2C }
  - { offsetInCU: 0x4831B, offset: 0x4831B, size: 0x8, addend: 0x0, symName: __ZNSt3__116forward_as_tupleB7v160006IJNS_9allocatorIPFNS_10unique_ptrIN6Halide8Internal17AbstractGeneratorENS_14default_deleteIS5_EEEERKNS3_16GeneratorContextEEEEEEENS_5tupleIJDpOT_EEESI_, symObjAddr: 0xBFFC, symBinAddr: 0x10000CCDC, symSize: 0x2C }
  - { offsetInCU: 0x48399, offset: 0x48399, size: 0x8, addend: 0x0, symName: __ZNSt3__13getB7v160006ILm0EJOPFNS_10unique_ptrIN6Halide8Internal17AbstractGeneratorENS_14default_deleteIS4_EEEERKNS2_16GeneratorContextEEEEERNS_13tuple_elementIXT_ENS_5tupleIJDpT0_EEEE4typeERSI_, symObjAddr: 0xC314, symBinAddr: 0x10000CFF4, symSize: 0x24 }
  - { offsetInCU: 0x483DC, offset: 0x483DC, size: 0x8, addend: 0x0, symName: __ZNSt3__13getB7v160006ILm0EJONS_9allocatorIPFNS_10unique_ptrIN6Halide8Internal17AbstractGeneratorENS_14default_deleteIS5_EEEERKNS3_16GeneratorContextEEEEEEERNS_13tuple_elementIXT_ENS_5tupleIJDpT0_EEEE4typeERSK_, symObjAddr: 0xC350, symBinAddr: 0x10000D030, symSize: 0x24 }
  - { offsetInCU: 0x48903, offset: 0x48903, size: 0x8, addend: 0x0, symName: __ZNSt3__116forward_as_tupleB7v160006IJRKPFNS_10unique_ptrIN6Halide8Internal17AbstractGeneratorENS_14default_deleteIS4_EEEERKNS2_16GeneratorContextEEEEENS_5tupleIJDpOT_EEESI_, symObjAddr: 0xC8E4, symBinAddr: 0x10000D5C4, symSize: 0x2C }
  - { offsetInCU: 0x48951, offset: 0x48951, size: 0x8, addend: 0x0, symName: __ZNSt3__13getB7v160006ILm0EJRKPFNS_10unique_ptrIN6Halide8Internal17AbstractGeneratorENS_14default_deleteIS4_EEEERKNS2_16GeneratorContextEEEEERNS_13tuple_elementIXT_ENS_5tupleIJDpT0_EEEE4typeERSJ_, symObjAddr: 0xCAD4, symBinAddr: 0x10000D7B4, symSize: 0x24 }
  - { offsetInCU: 0x48994, offset: 0x48994, size: 0x8, addend: 0x0, symName: __ZNSt3__116forward_as_tupleB7v160006IJRKNS_9allocatorIPFNS_10unique_ptrIN6Halide8Internal17AbstractGeneratorENS_14default_deleteIS5_EEEERKNS3_16GeneratorContextEEEEEEENS_5tupleIJDpOT_EEESK_, symObjAddr: 0xCE30, symBinAddr: 0x10000DB10, symSize: 0x2C }
  - { offsetInCU: 0x489E2, offset: 0x489E2, size: 0x8, addend: 0x0, symName: __ZNSt3__13getB7v160006ILm0EJRKNS_9allocatorIPFNS_10unique_ptrIN6Halide8Internal17AbstractGeneratorENS_14default_deleteIS5_EEEERKNS3_16GeneratorContextEEEEEEERNS_13tuple_elementIXT_ENS_5tupleIJDpT0_EEEE4typeERSL_, symObjAddr: 0xD014, symBinAddr: 0x10000DCF4, symSize: 0x24 }
  - { offsetInCU: 0x48A6A, offset: 0x48A6A, size: 0x8, addend: 0x0, symName: __ZNSt3__18__invokeB7v160006IRPFNS_10unique_ptrIN6Halide8Internal17AbstractGeneratorENS_14default_deleteIS4_EEEERKNS2_16GeneratorContextEEJSA_EEEDTclclsr3stdE7declvalIT_EEspclsr3stdE7declvalIT0_EEEEOSE_DpOSF_, symObjAddr: 0xD0F4, symBinAddr: 0x10000DDD4, symSize: 0x38 }
  - { offsetInCU: 0x498E5, offset: 0x498E5, size: 0x8, addend: 0x0, symName: __ZSt28__throw_bad_array_new_lengthB7v160006v, symObjAddr: 0x1B44, symBinAddr: 0x100002824, symSize: 0x34 }
  - { offsetInCU: 0x51CEA, offset: 0x51CEA, size: 0x8, addend: 0x0, symName: __ZN25HalideIntrospectionCanary12_GLOBAL__N_119TestCompilationUnitC1Ev, symObjAddr: 0x0, symBinAddr: 0x100000CE0, symSize: 0x2C }
  - { offsetInCU: 0x51D14, offset: 0x51D14, size: 0x8, addend: 0x0, symName: __ZN6Halide9GeneratorIN12_GLOBAL__N_112YuvToRgba888EE6createERKNS_16GeneratorContextERKNSt3__112basic_stringIcNS7_11char_traitsIcEENS7_9allocatorIcEEEESF_, symObjAddr: 0xF8, symBinAddr: 0x100000DD8, symSize: 0xAC }
  - { offsetInCU: 0x51D6B, offset: 0x51D6B, size: 0x8, addend: 0x0, symName: __ZNSt3__112basic_stringIcNS_11char_traitsIcEENS_9allocatorIcEEEC1B7v160006IDnEEPKc, symObjAddr: 0x1A4, symBinAddr: 0x100000E84, symSize: 0x34 }
  - { offsetInCU: 0x51DA9, offset: 0x51DA9, size: 0x8, addend: 0x0, symName: __ZNSt3__110unique_ptrIN6Halide8Internal17AbstractGeneratorENS_14default_deleteIS3_EEEC1B7v160006IN12_GLOBAL__N_112YuvToRgba888ENS4_IS9_EEvvEEONS0_IT_T0_EE, symObjAddr: 0x1D8, symBinAddr: 0x100000EB8, symSize: 0x34 }
  - { offsetInCU: 0x51DF5, offset: 0x51DF5, size: 0x8, addend: 0x0, symName: __ZNSt3__110unique_ptrIN12_GLOBAL__N_112YuvToRgba888ENS_14default_deleteIS2_EEED1B7v160006Ev, symObjAddr: 0x20C, symBinAddr: 0x100000EEC, symSize: 0x2C }
  - { offsetInCU: 0x51E1F, offset: 0x51E1F, size: 0x8, addend: 0x0, symName: __ZNSt3__18functionIFNS_10unique_ptrIN6Halide8Internal17AbstractGeneratorENS_14default_deleteIS4_EEEERKNS2_16GeneratorContextEEEC1IPSB_vEET_, symObjAddr: 0x238, symBinAddr: 0x100000F18, symSize: 0x34 }
  - { offsetInCU: 0x51E64, offset: 0x51E64, size: 0x8, addend: 0x0, symName: __ZNSt3__18functionIFNS_10unique_ptrIN6Halide8Internal17AbstractGeneratorENS_14default_deleteIS4_EEEERKNS2_16GeneratorContextEEED1Ev, symObjAddr: 0x26C, symBinAddr: 0x100000F4C, symSize: 0x2C }
  - { offsetInCU: 0x51E90, offset: 0x51E90, size: 0x8, addend: 0x0, symName: _main, symObjAddr: 0x298, symBinAddr: 0x100000F78, symSize: 0x30 }
  - { offsetInCU: 0x51EC7, offset: 0x51EC7, size: 0x8, addend: 0x0, symName: __ZN25HalideIntrospectionCanary12_GLOBAL__N_119TestCompilationUnitC2Ev, symObjAddr: 0x2C8, symBinAddr: 0x100000FA8, symSize: 0x44 }
  - { offsetInCU: 0x51EF1, offset: 0x51EF1, size: 0x8, addend: 0x0, symName: __ZN25HalideIntrospectionCanary1AC1Ev, symObjAddr: 0x960, symBinAddr: 0x100001640, symSize: 0x2C }
  - { offsetInCU: 0x51F1B, offset: 0x51F1B, size: 0x8, addend: 0x0, symName: __ZN25HalideIntrospectionCanary1AC2Ev, symObjAddr: 0x98C, symBinAddr: 0x10000166C, symSize: 0x38 }
  - { offsetInCU: 0x51F45, offset: 0x51F45, size: 0x8, addend: 0x0, symName: __ZN25HalideIntrospectionCanary1A1BC1Ev, symObjAddr: 0x9C4, symBinAddr: 0x1000016A4, symSize: 0x2C }
  - { offsetInCU: 0x51F6F, offset: 0x51F6F, size: 0x8, addend: 0x0, symName: __ZN25HalideIntrospectionCanary1A1BC2Ev, symObjAddr: 0x9F0, symBinAddr: 0x1000016D0, symSize: 0x30 }
  - { offsetInCU: 0x51F99, offset: 0x51F99, size: 0x8, addend: 0x0, symName: __ZNSt3__112basic_stringIcNS_11char_traitsIcEENS_9allocatorIcEEE6appendB7v160006ERKS5_, symObjAddr: 0xE20, symBinAddr: 0x100001B00, symSize: 0x4C }
  - { offsetInCU: 0x51FCE, offset: 0x51FCE, size: 0x8, addend: 0x0, symName: __ZNSt3__112basic_stringIcNS_11char_traitsIcEENS_9allocatorIcEEEC1B7v160006EOS5_, symObjAddr: 0xE6C, symBinAddr: 0x100001B4C, symSize: 0x34 }
  - { offsetInCU: 0x52007, offset: 0x52007, size: 0x8, addend: 0x0, symName: __ZNKSt3__112basic_stringIcNS_11char_traitsIcEENS_9allocatorIcEEE4dataB7v160006Ev, symObjAddr: 0xEA0, symBinAddr: 0x100001B80, symSize: 0x28 }
  - { offsetInCU: 0x5202D, offset: 0x5202D, size: 0x8, addend: 0x0, symName: __ZNKSt3__112basic_stringIcNS_11char_traitsIcEENS_9allocatorIcEEE4sizeB7v160006Ev, symObjAddr: 0xEC8, symBinAddr: 0x100001BA8, symSize: 0x54 }
  - { offsetInCU: 0x52053, offset: 0x52053, size: 0x8, addend: 0x0, symName: __ZNKSt3__112basic_stringIcNS_11char_traitsIcEENS_9allocatorIcEEE13__get_pointerB7v160006Ev, symObjAddr: 0xF30, symBinAddr: 0x100001C10, symSize: 0x54 }
  - { offsetInCU: 0x52079, offset: 0x52079, size: 0x8, addend: 0x0, symName: __ZNKSt3__112basic_stringIcNS_11char_traitsIcEENS_9allocatorIcEEE9__is_longB7v160006Ev, symObjAddr: 0xF84, symBinAddr: 0x100001C64, symSize: 0x38 }
  - { offsetInCU: 0x5209F, offset: 0x5209F, size: 0x8, addend: 0x0, symName: __ZNKSt3__112basic_stringIcNS_11char_traitsIcEENS_9allocatorIcEEE18__get_long_pointerB7v160006Ev, symObjAddr: 0xFBC, symBinAddr: 0x100001C9C, symSize: 0x28 }
  - { offsetInCU: 0x520C5, offset: 0x520C5, size: 0x8, addend: 0x0, symName: __ZNKSt3__112basic_stringIcNS_11char_traitsIcEENS_9allocatorIcEEE19__get_short_pointerB7v160006Ev, symObjAddr: 0xFE4, symBinAddr: 0x100001CC4, symSize: 0x28 }
  - { offsetInCU: 0x520EB, offset: 0x520EB, size: 0x8, addend: 0x0, symName: __ZNKSt3__117__compressed_pairINS_12basic_stringIcNS_11char_traitsIcEENS_9allocatorIcEEE5__repES5_E5firstB7v160006Ev, symObjAddr: 0x100C, symBinAddr: 0x100001CEC, symSize: 0x24 }
  - { offsetInCU: 0x52111, offset: 0x52111, size: 0x8, addend: 0x0, symName: __ZNKSt3__122__compressed_pair_elemINS_12basic_stringIcNS_11char_traitsIcEENS_9allocatorIcEEE5__repELi0ELb0EE5__getB7v160006Ev, symObjAddr: 0x1030, symBinAddr: 0x100001D10, symSize: 0x14 }
  - { offsetInCU: 0x52137, offset: 0x52137, size: 0x8, addend: 0x0, symName: __ZNSt3__114pointer_traitsIPKcE10pointer_toB7v160006ERS1_, symObjAddr: 0x1044, symBinAddr: 0x100001D24, symSize: 0x14 }
  - { offsetInCU: 0x5215A, offset: 0x5215A, size: 0x8, addend: 0x0, symName: __ZNKSt3__112basic_stringIcNS_11char_traitsIcEENS_9allocatorIcEEE15__get_long_sizeB7v160006Ev, symObjAddr: 0x1058, symBinAddr: 0x100001D38, symSize: 0x28 }
  - { offsetInCU: 0x52180, offset: 0x52180, size: 0x8, addend: 0x0, symName: __ZNKSt3__112basic_stringIcNS_11char_traitsIcEENS_9allocatorIcEEE16__get_short_sizeB7v160006Ev, symObjAddr: 0x1080, symBinAddr: 0x100001D60, symSize: 0x34 }
  - { offsetInCU: 0x521A6, offset: 0x521A6, size: 0x8, addend: 0x0, symName: __ZNSt3__112basic_stringIcNS_11char_traitsIcEENS_9allocatorIcEEEC2B7v160006EOS5_, symObjAddr: 0x10B4, symBinAddr: 0x100001D94, symSize: 0x88 }
  - { offsetInCU: 0x521DF, offset: 0x521DF, size: 0x8, addend: 0x0, symName: __ZNSt3__112basic_stringIcNS_11char_traitsIcEENS_9allocatorIcEEE14__default_initB7v160006Ev, symObjAddr: 0x113C, symBinAddr: 0x100001E1C, symSize: 0x40 }
  - { offsetInCU: 0x52205, offset: 0x52205, size: 0x8, addend: 0x0, symName: __ZNSt3__117__compressed_pairINS_12basic_stringIcNS_11char_traitsIcEENS_9allocatorIcEEE5__repES5_E5firstB7v160006Ev, symObjAddr: 0x11AC, symBinAddr: 0x100001E8C, symSize: 0x24 }
  - { offsetInCU: 0x5222B, offset: 0x5222B, size: 0x8, addend: 0x0, symName: __ZNSt3__122__compressed_pair_elemINS_12basic_stringIcNS_11char_traitsIcEENS_9allocatorIcEEE5__repELi0ELb0EE5__getB7v160006Ev, symObjAddr: 0x11D0, symBinAddr: 0x100001EB0, symSize: 0x14 }
  - { offsetInCU: 0x52251, offset: 0x52251, size: 0x8, addend: 0x0, symName: __ZNSt3__111char_traitsIcE7compareEPKcS3_m, symObjAddr: 0x11E4, symBinAddr: 0x100001EC4, symSize: 0x6C }
  - { offsetInCU: 0x52290, offset: 0x52290, size: 0x8, addend: 0x0, symName: __ZNSt3__111char_traitsIcE6lengthEPKc, symObjAddr: 0x1284, symBinAddr: 0x100001F64, symSize: 0x34 }
  - { offsetInCU: 0x522BE, offset: 0x522BE, size: 0x8, addend: 0x0, symName: __ZNSt3__116allocator_traitsINS_9allocatorIcEEE37select_on_container_copy_constructionB7v160006IS2_vvEES2_RKS2_, symObjAddr: 0x12B8, symBinAddr: 0x100001F98, symSize: 0x10 }
  - { offsetInCU: 0x522ED, offset: 0x522ED, size: 0x8, addend: 0x0, symName: __ZNKSt3__112basic_stringIcNS_11char_traitsIcEENS_9allocatorIcEEE13get_allocatorB7v160006Ev, symObjAddr: 0x12C8, symBinAddr: 0x100001FA8, symSize: 0x24 }
  - { offsetInCU: 0x52313, offset: 0x52313, size: 0x8, addend: 0x0, symName: __ZNSt3__112basic_stringIcNS_11char_traitsIcEENS_9allocatorIcEEEC1B7v160006ENS_24__uninitialized_size_tagEmRKS4_, symObjAddr: 0x12EC, symBinAddr: 0x100001FCC, symSize: 0x3C }
  - { offsetInCU: 0x52367, offset: 0x52367, size: 0x8, addend: 0x0, symName: __ZNSt3__112basic_stringIcNS_11char_traitsIcEENS_9allocatorIcEEE13__get_pointerB7v160006Ev, symObjAddr: 0x133C, symBinAddr: 0x10000201C, symSize: 0x54 }
  - { offsetInCU: 0x5238D, offset: 0x5238D, size: 0x8, addend: 0x0, symName: __ZNSt3__111char_traitsIcE4copyEPcPKcm, symObjAddr: 0x1390, symBinAddr: 0x100002070, symSize: 0x5C }
  - { offsetInCU: 0x523CC, offset: 0x523CC, size: 0x8, addend: 0x0, symName: __ZNSt3__111char_traitsIcE6assignEPcmc, symObjAddr: 0x13EC, symBinAddr: 0x1000020CC, symSize: 0x44 }
  - { offsetInCU: 0x5240B, offset: 0x5240B, size: 0x8, addend: 0x0, symName: __ZNKSt3__112basic_stringIcNS_11char_traitsIcEENS_9allocatorIcEEE7__allocB7v160006Ev, symObjAddr: 0x1454, symBinAddr: 0x100002134, symSize: 0x24 }
  - { offsetInCU: 0x52431, offset: 0x52431, size: 0x8, addend: 0x0, symName: __ZNKSt3__117__compressed_pairINS_12basic_stringIcNS_11char_traitsIcEENS_9allocatorIcEEE5__repES5_E6secondB7v160006Ev, symObjAddr: 0x1478, symBinAddr: 0x100002158, symSize: 0x24 }
  - { offsetInCU: 0x52457, offset: 0x52457, size: 0x8, addend: 0x0, symName: __ZNKSt3__122__compressed_pair_elemINS_9allocatorIcEELi1ELb1EE5__getB7v160006Ev, symObjAddr: 0x149C, symBinAddr: 0x10000217C, symSize: 0x14 }
  - { offsetInCU: 0x5247D, offset: 0x5247D, size: 0x8, addend: 0x0, symName: __ZNSt3__112basic_stringIcNS_11char_traitsIcEENS_9allocatorIcEEEC2B7v160006ENS_24__uninitialized_size_tagEmRKS4_, symObjAddr: 0x14B0, symBinAddr: 0x100002190, symSize: 0x118 }
  - { offsetInCU: 0x52504, offset: 0x52504, size: 0x8, addend: 0x0, symName: __ZNSt3__117__compressed_pairINS_12basic_stringIcNS_11char_traitsIcEENS_9allocatorIcEEE5__repES5_EC1B7v160006INS_18__default_init_tagERKS5_EEOT_OT0_, symObjAddr: 0x15C8, symBinAddr: 0x1000022A8, symSize: 0x3C }
  - { offsetInCU: 0x5255C, offset: 0x5255C, size: 0x8, addend: 0x0, symName: __ZNKSt3__112basic_stringIcNS_11char_traitsIcEENS_9allocatorIcEEE8max_sizeB7v160006Ev, symObjAddr: 0x1604, symBinAddr: 0x1000022E4, symSize: 0xAC }
  - { offsetInCU: 0x525AF, offset: 0x525AF, size: 0x8, addend: 0x0, symName: __ZNKSt3__112basic_stringIcNS_11char_traitsIcEENS_9allocatorIcEEE20__throw_length_errorB7v160006Ev, symObjAddr: 0x16B0, symBinAddr: 0x100002390, symSize: 0x1C }
  - { offsetInCU: 0x525D5, offset: 0x525D5, size: 0x8, addend: 0x0, symName: __ZNSt3__112basic_stringIcNS_11char_traitsIcEENS_9allocatorIcEEE13__fits_in_ssoB7v160006Em, symObjAddr: 0x16CC, symBinAddr: 0x1000023AC, symSize: 0x20 }
  - { offsetInCU: 0x525F9, offset: 0x525F9, size: 0x8, addend: 0x0, symName: __ZNSt3__112basic_stringIcNS_11char_traitsIcEENS_9allocatorIcEEE16__set_short_sizeB7v160006Em, symObjAddr: 0x16EC, symBinAddr: 0x1000023CC, symSize: 0x78 }
  - { offsetInCU: 0x5262E, offset: 0x5262E, size: 0x8, addend: 0x0, symName: __ZNSt3__112basic_stringIcNS_11char_traitsIcEENS_9allocatorIcEEE11__recommendB7v160006Em, symObjAddr: 0x1764, symBinAddr: 0x100002444, symSize: 0x84 }
  - { offsetInCU: 0x52661, offset: 0x52661, size: 0x8, addend: 0x0, symName: __ZNSt3__116allocator_traitsINS_9allocatorIcEEE8allocateB7v160006ERS2_m, symObjAddr: 0x17E8, symBinAddr: 0x1000024C8, symSize: 0x2C }
  - { offsetInCU: 0x52694, offset: 0x52694, size: 0x8, addend: 0x0, symName: __ZNSt3__112basic_stringIcNS_11char_traitsIcEENS_9allocatorIcEEE7__allocB7v160006Ev, symObjAddr: 0x1814, symBinAddr: 0x1000024F4, symSize: 0x24 }
  - { offsetInCU: 0x526BA, offset: 0x526BA, size: 0x8, addend: 0x0, symName: __ZNSt3__112basic_stringIcNS_11char_traitsIcEENS_9allocatorIcEEE16__begin_lifetimeB7v160006EPcm, symObjAddr: 0x1838, symBinAddr: 0x100002518, symSize: 0x14 }
  - { offsetInCU: 0x526ED, offset: 0x526ED, size: 0x8, addend: 0x0, symName: __ZNSt3__112basic_stringIcNS_11char_traitsIcEENS_9allocatorIcEEE14__set_long_capB7v160006Em, symObjAddr: 0x184C, symBinAddr: 0x10000252C, symSize: 0x70 }
  - { offsetInCU: 0x52722, offset: 0x52722, size: 0x8, addend: 0x0, symName: __ZNSt3__112basic_stringIcNS_11char_traitsIcEENS_9allocatorIcEEE18__set_long_pointerB7v160006EPc, symObjAddr: 0x18BC, symBinAddr: 0x10000259C, symSize: 0x38 }
  - { offsetInCU: 0x52757, offset: 0x52757, size: 0x8, addend: 0x0, symName: __ZNSt3__112basic_stringIcNS_11char_traitsIcEENS_9allocatorIcEEE15__set_long_sizeB7v160006Em, symObjAddr: 0x18F4, symBinAddr: 0x1000025D4, symSize: 0x38 }
  - { offsetInCU: 0x5278C, offset: 0x5278C, size: 0x8, addend: 0x0, symName: __ZNSt3__117__compressed_pairINS_12basic_stringIcNS_11char_traitsIcEENS_9allocatorIcEEE5__repES5_EC2B7v160006INS_18__default_init_tagERKS5_EEOT_OT0_, symObjAddr: 0x192C, symBinAddr: 0x10000260C, symSize: 0x40 }
  - { offsetInCU: 0x527E4, offset: 0x527E4, size: 0x8, addend: 0x0, symName: __ZNSt3__122__compressed_pair_elemINS_12basic_stringIcNS_11char_traitsIcEENS_9allocatorIcEEE5__repELi0ELb0EEC2B7v160006ENS_18__default_init_tagE, symObjAddr: 0x196C, symBinAddr: 0x10000264C, symSize: 0x14 }
  - { offsetInCU: 0x52819, offset: 0x52819, size: 0x8, addend: 0x0, symName: __ZNSt3__122__compressed_pair_elemINS_9allocatorIcEELi1ELb1EEC2B7v160006IRKS2_vEEOT_, symObjAddr: 0x1980, symBinAddr: 0x100002660, symSize: 0x18 }
  - { offsetInCU: 0x5285B, offset: 0x5285B, size: 0x8, addend: 0x0, symName: __ZNSt3__116allocator_traitsINS_9allocatorIcEEE8max_sizeB7v160006IS2_vEEmRKS2_, symObjAddr: 0x1998, symBinAddr: 0x100002678, symSize: 0x24 }
  - { offsetInCU: 0x52889, offset: 0x52889, size: 0x8, addend: 0x0, symName: __ZNSt3__114numeric_limitsImE3maxB7v160006Ev, symObjAddr: 0x19BC, symBinAddr: 0x10000269C, symSize: 0x14 }
  - { offsetInCU: 0x5289D, offset: 0x5289D, size: 0x8, addend: 0x0, symName: __ZNKSt3__19allocatorIcE8max_sizeB7v160006Ev, symObjAddr: 0x19D0, symBinAddr: 0x1000026B0, symSize: 0x14 }
  - { offsetInCU: 0x528C3, offset: 0x528C3, size: 0x8, addend: 0x0, symName: __ZNSt3__123__libcpp_numeric_limitsImLb1EE3maxB7v160006Ev, symObjAddr: 0x19E4, symBinAddr: 0x1000026C4, symSize: 0x8 }
  - { offsetInCU: 0x528D7, offset: 0x528D7, size: 0x8, addend: 0x0, symName: __ZNSt12length_errorC1B7v160006EPKc, symObjAddr: 0x1A50, symBinAddr: 0x100002730, symSize: 0x34 }
  - { offsetInCU: 0x5290F, offset: 0x5290F, size: 0x8, addend: 0x0, symName: __ZNSt12length_errorC2B7v160006EPKc, symObjAddr: 0x1A84, symBinAddr: 0x100002764, symSize: 0x4C }
  - { offsetInCU: 0x52947, offset: 0x52947, size: 0x8, addend: 0x0, symName: __ZNSt3__112basic_stringIcNS_11char_traitsIcEENS_9allocatorIcEEE10__align_itB7v160006ILm16EEEmm, symObjAddr: 0x1AD0, symBinAddr: 0x1000027B0, symSize: 0x1C }
  - { offsetInCU: 0x52975, offset: 0x52975, size: 0x8, addend: 0x0, symName: __ZNSt3__19allocatorIcE8allocateB7v160006Em, symObjAddr: 0x1AEC, symBinAddr: 0x1000027CC, symSize: 0x58 }
  - { offsetInCU: 0x529A9, offset: 0x529A9, size: 0x8, addend: 0x0, symName: __ZNSt3__117__compressed_pairINS_12basic_stringIcNS_11char_traitsIcEENS_9allocatorIcEEE5__repES5_E6secondB7v160006Ev, symObjAddr: 0x1C48, symBinAddr: 0x100002928, symSize: 0x24 }
  - { offsetInCU: 0x529CF, offset: 0x529CF, size: 0x8, addend: 0x0, symName: __ZNSt3__122__compressed_pair_elemINS_9allocatorIcEELi1ELb1EE5__getB7v160006Ev, symObjAddr: 0x1C6C, symBinAddr: 0x10000294C, symSize: 0x14 }
  - { offsetInCU: 0x529F5, offset: 0x529F5, size: 0x8, addend: 0x0, symName: __ZNSt3__112basic_stringIcNS_11char_traitsIcEENS_9allocatorIcEEE18__get_long_pointerB7v160006Ev, symObjAddr: 0x1C80, symBinAddr: 0x100002960, symSize: 0x28 }
  - { offsetInCU: 0x52A1B, offset: 0x52A1B, size: 0x8, addend: 0x0, symName: __ZNSt3__112basic_stringIcNS_11char_traitsIcEENS_9allocatorIcEEE19__get_short_pointerB7v160006Ev, symObjAddr: 0x1CA8, symBinAddr: 0x100002988, symSize: 0x28 }
  - { offsetInCU: 0x52A41, offset: 0x52A41, size: 0x8, addend: 0x0, symName: __ZNSt3__114pointer_traitsIPcE10pointer_toB7v160006ERc, symObjAddr: 0x1CD0, symBinAddr: 0x1000029B0, symSize: 0x14 }
  - { offsetInCU: 0x52A8A, offset: 0x52A8A, size: 0x8, addend: 0x0, symName: __ZNKSt3__114__copy_trivialclB7v160006IKccLi0EEENS_4pairIPT_PT0_EES5_S5_S7_, symObjAddr: 0x1F04, symBinAddr: 0x100002BE4, symSize: 0x48 }
  - { offsetInCU: 0x52B14, offset: 0x52B14, size: 0x8, addend: 0x0, symName: __ZNSt3__14pairIPKcS2_EC1B7v160006IS2_S2_LPv0EEEOT_OT0_, symObjAddr: 0x206C, symBinAddr: 0x100002D4C, symSize: 0x3C }
  - { offsetInCU: 0x52B72, offset: 0x52B72, size: 0x8, addend: 0x0, symName: __ZNSt3__14pairIPKcS2_EC2B7v160006IS2_S2_LPv0EEEOT_OT0_, symObjAddr: 0x20A8, symBinAddr: 0x100002D88, symSize: 0x34 }
  - { offsetInCU: 0x52BD0, offset: 0x52BD0, size: 0x8, addend: 0x0, symName: __ZNSt3__118__unwrap_iter_implIPKcLb1EE8__unwrapB7v160006ES2_, symObjAddr: 0x20DC, symBinAddr: 0x100002DBC, symSize: 0x24 }
  - { offsetInCU: 0x52BFF, offset: 0x52BFF, size: 0x8, addend: 0x0, symName: __ZNSt3__14pairIPKcPcEC1B7v160006IRS2_S3_LPv0EEEOT_OT0_, symObjAddr: 0x21B4, symBinAddr: 0x100002E94, symSize: 0x3C }
  - { offsetInCU: 0x52C5D, offset: 0x52C5D, size: 0x8, addend: 0x0, symName: __ZNSt3__14pairIPKcPcEC2B7v160006IRS2_S3_LPv0EEEOT_OT0_, symObjAddr: 0x21F0, symBinAddr: 0x100002ED0, symSize: 0x34 }
  - { offsetInCU: 0x52CBB, offset: 0x52CBB, size: 0x8, addend: 0x0, symName: __ZNSt3__118__unwrap_iter_implIPcLb1EE8__unwrapB7v160006ES1_, symObjAddr: 0x2224, symBinAddr: 0x100002F04, symSize: 0x24 }
  - { offsetInCU: 0x52CDE, offset: 0x52CDE, size: 0x8, addend: 0x0, symName: __ZNSt3__14pairIPKcPcEC1B7v160006IS2_S3_LPv0EEEOT_OT0_, symObjAddr: 0x2248, symBinAddr: 0x100002F28, symSize: 0x3C }
  - { offsetInCU: 0x52D3C, offset: 0x52D3C, size: 0x8, addend: 0x0, symName: __ZNSt3__14pairIPKcPcEC2B7v160006IS2_S3_LPv0EEEOT_OT0_, symObjAddr: 0x2284, symBinAddr: 0x100002F64, symSize: 0x34 }
  - { offsetInCU: 0x52D9A, offset: 0x52D9A, size: 0x8, addend: 0x0, symName: __ZNSt3__118__unwrap_iter_implIPKcLb1EE8__rewrapB7v160006ES2_S2_, symObjAddr: 0x22F4, symBinAddr: 0x100002FD4, symSize: 0x48 }
  - { offsetInCU: 0x52DCB, offset: 0x52DCB, size: 0x8, addend: 0x0, symName: __ZNSt3__118__unwrap_iter_implIPcLb1EE8__rewrapB7v160006ES1_S1_, symObjAddr: 0x233C, symBinAddr: 0x10000301C, symSize: 0x48 }
  - { offsetInCU: 0x52E1D, offset: 0x52E1D, size: 0x8, addend: 0x0, symName: __ZNKSt3__113basic_ostreamIcNS_11char_traitsIcEEE6sentrycvbB7v160006Ev, symObjAddr: 0x2674, symBinAddr: 0x100003354, symSize: 0x1C }
  - { offsetInCU: 0x52E43, offset: 0x52E43, size: 0x8, addend: 0x0, symName: __ZNSt3__119ostreambuf_iteratorIcNS_11char_traitsIcEEEC1B7v160006ERNS_13basic_ostreamIcS2_EE, symObjAddr: 0x28D0, symBinAddr: 0x1000035B0, symSize: 0x34 }
  - { offsetInCU: 0x52E7B, offset: 0x52E7B, size: 0x8, addend: 0x0, symName: __ZNKSt3__18ios_base5flagsB7v160006Ev, symObjAddr: 0x2904, symBinAddr: 0x1000035E4, symSize: 0x18 }
  - { offsetInCU: 0x52EA3, offset: 0x52EA3, size: 0x8, addend: 0x0, symName: __ZNKSt3__19basic_iosIcNS_11char_traitsIcEEE4fillB7v160006Ev, symObjAddr: 0x291C, symBinAddr: 0x1000035FC, symSize: 0x64 }
  - { offsetInCU: 0x52ECB, offset: 0x52ECB, size: 0x8, addend: 0x0, symName: __ZNKSt3__119ostreambuf_iteratorIcNS_11char_traitsIcEEE6failedB7v160006Ev, symObjAddr: 0x2980, symBinAddr: 0x100003660, symSize: 0x24 }
  - { offsetInCU: 0x52EF1, offset: 0x52EF1, size: 0x8, addend: 0x0, symName: __ZNSt3__19basic_iosIcNS_11char_traitsIcEEE8setstateB7v160006Ej, symObjAddr: 0x29A4, symBinAddr: 0x100003684, symSize: 0x2C }
  - { offsetInCU: 0x52F26, offset: 0x52F26, size: 0x8, addend: 0x0, symName: __ZNKSt3__18ios_base5widthB7v160006Ev, symObjAddr: 0x29D0, symBinAddr: 0x1000036B0, symSize: 0x18 }
  - { offsetInCU: 0x52F4E, offset: 0x52F4E, size: 0x8, addend: 0x0, symName: __ZNSt3__115basic_streambufIcNS_11char_traitsIcEEE5sputnB7v160006EPKcl, symObjAddr: 0x29E8, symBinAddr: 0x1000036C8, symSize: 0x3C }
  - { offsetInCU: 0x52F90, offset: 0x52F90, size: 0x8, addend: 0x0, symName: __ZNSt3__112basic_stringIcNS_11char_traitsIcEENS_9allocatorIcEEEC1B7v160006Emc, symObjAddr: 0x2A24, symBinAddr: 0x100003704, symSize: 0x3C }
  - { offsetInCU: 0x52FD8, offset: 0x52FD8, size: 0x8, addend: 0x0, symName: __ZNSt3__112basic_stringIcNS_11char_traitsIcEENS_9allocatorIcEEE4dataB7v160006Ev, symObjAddr: 0x2A60, symBinAddr: 0x100003740, symSize: 0x28 }
  - { offsetInCU: 0x52FFE, offset: 0x52FFE, size: 0x8, addend: 0x0, symName: __ZNSt3__18ios_base5widthB7v160006El, symObjAddr: 0x2A88, symBinAddr: 0x100003768, symSize: 0x2C }
  - { offsetInCU: 0x53044, offset: 0x53044, size: 0x8, addend: 0x0, symName: __ZNSt3__112basic_stringIcNS_11char_traitsIcEENS_9allocatorIcEEEC2B7v160006Emc, symObjAddr: 0x2AB4, symBinAddr: 0x100003794, symSize: 0x54 }
  - { offsetInCU: 0x5308C, offset: 0x5308C, size: 0x8, addend: 0x0, symName: __ZNSt3__117__compressed_pairINS_12basic_stringIcNS_11char_traitsIcEENS_9allocatorIcEEE5__repES5_EC1B7v160006INS_18__default_init_tagESA_EEOT_OT0_, symObjAddr: 0x2B08, symBinAddr: 0x1000037E8, symSize: 0x3C }
  - { offsetInCU: 0x530E4, offset: 0x530E4, size: 0x8, addend: 0x0, symName: __ZNSt3__117__compressed_pairINS_12basic_stringIcNS_11char_traitsIcEENS_9allocatorIcEEE5__repES5_EC2B7v160006INS_18__default_init_tagESA_EEOT_OT0_, symObjAddr: 0x2B44, symBinAddr: 0x100003824, symSize: 0x3C }
  - { offsetInCU: 0x5313C, offset: 0x5313C, size: 0x8, addend: 0x0, symName: __ZNSt3__122__compressed_pair_elemINS_9allocatorIcEELi1ELb1EEC2B7v160006ENS_18__default_init_tagE, symObjAddr: 0x2B80, symBinAddr: 0x100003860, symSize: 0x2C }
  - { offsetInCU: 0x53171, offset: 0x53171, size: 0x8, addend: 0x0, symName: __ZNSt3__19allocatorIcEC2B7v160006Ev, symObjAddr: 0x2BAC, symBinAddr: 0x10000388C, symSize: 0x2C }
  - { offsetInCU: 0x5319B, offset: 0x5319B, size: 0x8, addend: 0x0, symName: __ZNSt3__116__non_trivial_ifILb1ENS_9allocatorIcEEEC2B7v160006Ev, symObjAddr: 0x2BD8, symBinAddr: 0x1000038B8, symSize: 0x14 }
  - { offsetInCU: 0x531C5, offset: 0x531C5, size: 0x8, addend: 0x0, symName: __ZNSt3__119ostreambuf_iteratorIcNS_11char_traitsIcEEEC2B7v160006ERNS_13basic_ostreamIcS2_EE, symObjAddr: 0x2BEC, symBinAddr: 0x1000038CC, symSize: 0x54 }
  - { offsetInCU: 0x531FD, offset: 0x531FD, size: 0x8, addend: 0x0, symName: __ZNKSt3__19basic_iosIcNS_11char_traitsIcEEE5rdbufB7v160006Ev, symObjAddr: 0x2C40, symBinAddr: 0x100003920, symSize: 0x24 }
  - { offsetInCU: 0x53225, offset: 0x53225, size: 0x8, addend: 0x0, symName: __ZNKSt3__18ios_base5rdbufB7v160006Ev, symObjAddr: 0x2C64, symBinAddr: 0x100003944, symSize: 0x18 }
  - { offsetInCU: 0x5324B, offset: 0x5324B, size: 0x8, addend: 0x0, symName: __ZNSt3__111char_traitsIcE11eq_int_typeEii, symObjAddr: 0x2C7C, symBinAddr: 0x10000395C, symSize: 0x28 }
  - { offsetInCU: 0x5327C, offset: 0x5327C, size: 0x8, addend: 0x0, symName: __ZNSt3__111char_traitsIcE3eofEv, symObjAddr: 0x2CA4, symBinAddr: 0x100003984, symSize: 0x8 }
  - { offsetInCU: 0x53290, offset: 0x53290, size: 0x8, addend: 0x0, symName: __ZNKSt3__19basic_iosIcNS_11char_traitsIcEEE5widenB7v160006Ec, symObjAddr: 0x2CAC, symBinAddr: 0x10000398C, symSize: 0x84 }
  - { offsetInCU: 0x532F9, offset: 0x532F9, size: 0x8, addend: 0x0, symName: __ZNKSt3__15ctypeIcE5widenB7v160006Ec, symObjAddr: 0x2D5C, symBinAddr: 0x100003A3C, symSize: 0x38 }
  - { offsetInCU: 0x5332E, offset: 0x5332E, size: 0x8, addend: 0x0, symName: __ZNSt3__18ios_base8setstateB7v160006Ej, symObjAddr: 0x2D94, symBinAddr: 0x100003A74, symSize: 0x34 }
  - { offsetInCU: 0x53365, offset: 0x53365, size: 0x8, addend: 0x0, symName: __ZNSt3__112basic_stringIcNS_11char_traitsIcEENS_9allocatorIcEEEC2B7v160006IDnEEPKc, symObjAddr: 0x2DC8, symBinAddr: 0x100003AA8, symSize: 0x60 }
  - { offsetInCU: 0x533A3, offset: 0x533A3, size: 0x8, addend: 0x0, symName: __ZN6Halide9GeneratorIN12_GLOBAL__N_112YuvToRgba888EE6createERKNS_16GeneratorContextE, symObjAddr: 0x2E28, symBinAddr: 0x100003B08, symSize: 0xA4 }
  - { offsetInCU: 0x533D7, offset: 0x533D7, size: 0x8, addend: 0x0, symName: __ZNKSt3__110unique_ptrIN12_GLOBAL__N_112YuvToRgba888ENS_14default_deleteIS2_EEEptB7v160006Ev, symObjAddr: 0x2ECC, symBinAddr: 0x100003BAC, symSize: 0x28 }
  - { offsetInCU: 0x533FD, offset: 0x533FD, size: 0x8, addend: 0x0, symName: __ZN12_GLOBAL__N_112YuvToRgba888C1Ev, symObjAddr: 0x2F68, symBinAddr: 0x100003C48, symSize: 0x2C }
  - { offsetInCU: 0x53429, offset: 0x53429, size: 0x8, addend: 0x0, symName: __ZNSt3__110unique_ptrIN12_GLOBAL__N_112YuvToRgba888ENS_14default_deleteIS2_EEEC1B7v160006ILb1EvEEPS2_, symObjAddr: 0x2F94, symBinAddr: 0x100003C74, symSize: 0x34 }
  - { offsetInCU: 0x5346C, offset: 0x5346C, size: 0x8, addend: 0x0, symName: __ZN12_GLOBAL__N_112YuvToRgba888C2Ev, symObjAddr: 0x2FC8, symBinAddr: 0x100003CA8, symSize: 0x1C4 }
  - { offsetInCU: 0x53498, offset: 0x53498, size: 0x8, addend: 0x0, symName: __ZN6Halide9GeneratorIN12_GLOBAL__N_112YuvToRgba888EEC2Ev, symObjAddr: 0x318C, symBinAddr: 0x100003E6C, symSize: 0x54 }
  - { offsetInCU: 0x534C2, offset: 0x534C2, size: 0x8, addend: 0x0, symName: __ZN6Halide14GeneratorInputINS_6BufferIhLi2EEEEC1ERKNSt3__112basic_stringIcNS4_11char_traitsIcEENS4_9allocatorIcEEEE, symObjAddr: 0x31E0, symBinAddr: 0x100003EC0, symSize: 0x34 }
  - { offsetInCU: 0x534FB, offset: 0x534FB, size: 0x8, addend: 0x0, symName: __ZN6Halide15GeneratorOutputINS_6BufferIjLi2EEEEC1EPKc, symObjAddr: 0x3214, symBinAddr: 0x100003EF4, symSize: 0x74 }
  - { offsetInCU: 0x53534, offset: 0x53534, size: 0x8, addend: 0x0, symName: __ZN6Halide14GeneratorInputINS_6BufferIhLi2EEEED1Ev, symObjAddr: 0x3288, symBinAddr: 0x100003F68, symSize: 0x2C }
  - { offsetInCU: 0x53561, offset: 0x53561, size: 0x8, addend: 0x0, symName: __ZN6Halide9GeneratorIN12_GLOBAL__N_112YuvToRgba888EED2Ev, symObjAddr: 0x32B4, symBinAddr: 0x100003F94, symSize: 0x2C }
  - { offsetInCU: 0x5358E, offset: 0x5358E, size: 0x8, addend: 0x0, symName: __ZN12_GLOBAL__N_112YuvToRgba888D1Ev, symObjAddr: 0x32E0, symBinAddr: 0x100003FC0, symSize: 0x2C }
  - { offsetInCU: 0x535BA, offset: 0x535BA, size: 0x8, addend: 0x0, symName: __ZN12_GLOBAL__N_112YuvToRgba888D0Ev, symObjAddr: 0x330C, symBinAddr: 0x100003FEC, symSize: 0x30 }
  - { offsetInCU: 0x535E6, offset: 0x535E6, size: 0x8, addend: 0x0, symName: __ZN6Halide9GeneratorIN12_GLOBAL__N_112YuvToRgba888EE14build_pipelineEv, symObjAddr: 0x333C, symBinAddr: 0x10000401C, symSize: 0x3C }
  - { offsetInCU: 0x5360C, offset: 0x5360C, size: 0x8, addend: 0x0, symName: __ZN6Halide9GeneratorIN12_GLOBAL__N_112YuvToRgba888EE14call_configureEv, symObjAddr: 0x3378, symBinAddr: 0x100004058, symSize: 0x24 }
  - { offsetInCU: 0x53632, offset: 0x53632, size: 0x8, addend: 0x0, symName: __ZN6Halide9GeneratorIN12_GLOBAL__N_112YuvToRgba888EE13call_generateEv, symObjAddr: 0x339C, symBinAddr: 0x10000407C, symSize: 0x24 }
  - { offsetInCU: 0x53658, offset: 0x53658, size: 0x8, addend: 0x0, symName: __ZN6Halide9GeneratorIN12_GLOBAL__N_112YuvToRgba888EE13call_scheduleEv, symObjAddr: 0x33C0, symBinAddr: 0x1000040A0, symSize: 0x24 }
  - { offsetInCU: 0x5367E, offset: 0x5367E, size: 0x8, addend: 0x0, symName: __ZN6Halide9GeneratorIN12_GLOBAL__N_112YuvToRgba888EED1Ev, symObjAddr: 0x33F0, symBinAddr: 0x1000040D0, symSize: 0x2C }
  - { offsetInCU: 0x536AB, offset: 0x536AB, size: 0x8, addend: 0x0, symName: __ZN6Halide9GeneratorIN12_GLOBAL__N_112YuvToRgba888EED0Ev, symObjAddr: 0x341C, symBinAddr: 0x1000040FC, symSize: 0x30 }
  - { offsetInCU: 0x536D8, offset: 0x536D8, size: 0x8, addend: 0x0, symName: __ZN6Halide14GeneratorInputINS_6BufferIhLi2EEEEC2ERKNSt3__112basic_stringIcNS4_11char_traitsIcEENS4_9allocatorIcEEEE, symObjAddr: 0x344C, symBinAddr: 0x10000412C, symSize: 0x4C }
  - { offsetInCU: 0x53779, offset: 0x53779, size: 0x8, addend: 0x0, symName: __ZN6Halide8Internal21GeneratorInput_BufferINS_6BufferIhLi2EEEEC2ERKNSt3__112basic_stringIcNS5_11char_traitsIcEENS5_9allocatorIcEEEE, symObjAddr: 0x3498, symBinAddr: 0x100004178, symSize: 0x168 }
  - { offsetInCU: 0x53811, offset: 0x53811, size: 0x8, addend: 0x0, symName: __ZN6Halide14GeneratorInputINS_6BufferIhLi2EEEED0Ev, symObjAddr: 0x3600, symBinAddr: 0x1000042E0, symSize: 0x30 }
  - { offsetInCU: 0x5383E, offset: 0x5383E, size: 0x8, addend: 0x0, symName: __ZNK6Halide8Internal18GeneratorInputImplINS_6BufferIhLi2EEENS_4FuncEE8is_arrayEv, symObjAddr: 0x3630, symBinAddr: 0x100004310, symSize: 0x18 }
  - { offsetInCU: 0x53864, offset: 0x53864, size: 0x8, addend: 0x0, symName: __ZNK6Halide8Internal18GeneratorInputBase15input_or_outputEv, symObjAddr: 0x3648, symBinAddr: 0x100004328, symSize: 0x18 }
  - { offsetInCU: 0x5388A, offset: 0x5388A, size: 0x8, addend: 0x0, symName: __ZNK6Halide8Internal21GeneratorInput_BufferINS_6BufferIhLi2EEEE10get_c_typeEv, symObjAddr: 0x3660, symBinAddr: 0x100004340, symSize: 0x108 }
  - { offsetInCU: 0x5390C, offset: 0x5390C, size: 0x8, addend: 0x0, symName: __ZN6Halide6BufferIhLi2EE18static_halide_typeEv, symObjAddr: 0x3768, symBinAddr: 0x100004448, symSize: 0x24 }
  - { offsetInCU: 0x53920, offset: 0x53920, size: 0x8, addend: 0x0, symName: __ZNSt3__16vectorIN6Halide4TypeENS_9allocatorIS2_EEEC1B7v160006ESt16initializer_listIS2_E, symObjAddr: 0x378C, symBinAddr: 0x10000446C, symSize: 0x3C }
  - { offsetInCU: 0x5395B, offset: 0x5395B, size: 0x8, addend: 0x0, symName: __ZNSt3__16vectorIN6Halide4TypeENS_9allocatorIS2_EEEC1B7v160006Ev, symObjAddr: 0x37C8, symBinAddr: 0x1000044A8, symSize: 0x2C }
  - { offsetInCU: 0x53985, offset: 0x53985, size: 0x8, addend: 0x0, symName: __ZN6Halide6BufferIhLi2EE17static_dimensionsEv, symObjAddr: 0x37F4, symBinAddr: 0x1000044D4, symSize: 0x14 }
  - { offsetInCU: 0x5399E, offset: 0x5399E, size: 0x8, addend: 0x0, symName: __ZN6Halide8Internal18GeneratorInputImplINS_6BufferIhLi2EEENS_4FuncEEC2IS3_LPv0EEERKNSt3__112basic_stringIcNS8_11char_traitsIcEENS8_9allocatorIcEEEENS0_11ArgInfoKindERKNS8_6vectorINS_4TypeENSC_ISJ_EEEEi, symObjAddr: 0x3808, symBinAddr: 0x1000044E8, symSize: 0x64 }
  - { offsetInCU: 0x53A13, offset: 0x53A13, size: 0x8, addend: 0x0, symName: __ZNSt3__16vectorIN6Halide4TypeENS_9allocatorIS2_EEED1B7v160006Ev, symObjAddr: 0x386C, symBinAddr: 0x10000454C, symSize: 0x2C }
  - { offsetInCU: 0x53A3D, offset: 0x53A3D, size: 0x8, addend: 0x0, symName: __ZN6Halide8Internal21GeneratorInput_BufferINS_6BufferIhLi2EEEED1Ev, symObjAddr: 0x3898, symBinAddr: 0x100004578, symSize: 0x2C }
  - { offsetInCU: 0x53A6A, offset: 0x53A6A, size: 0x8, addend: 0x0, symName: __ZN6Halide8Internal21GeneratorInput_BufferINS_6BufferIhLi2EEEED0Ev, symObjAddr: 0x38C4, symBinAddr: 0x1000045A4, symSize: 0x30 }
  - { offsetInCU: 0x53B3A, offset: 0x53B3A, size: 0x8, addend: 0x0, symName: __ZN6Halide7Runtime6BufferIhLi2ELi2EE18static_halide_typeEv, symObjAddr: 0x38F4, symBinAddr: 0x1000045D4, symSize: 0x74 }
  - { offsetInCU: 0x53BD1, offset: 0x53BD1, size: 0x8, addend: 0x0, symName: __ZNSt3__16vectorIN6Halide4TypeENS_9allocatorIS2_EEEC2B7v160006ESt16initializer_listIS2_E, symObjAddr: 0x3968, symBinAddr: 0x100004648, symSize: 0x124 }
  - { offsetInCU: 0x53C29, offset: 0x53C29, size: 0x8, addend: 0x0, symName: __ZNSt3__117__compressed_pairIPN6Halide4TypeENS_9allocatorIS2_EEEC1B7v160006IDnNS_18__default_init_tagEEEOT_OT0_, symObjAddr: 0x3A8C, symBinAddr: 0x10000476C, symSize: 0x3C }
  - { offsetInCU: 0x53C81, offset: 0x53C81, size: 0x8, addend: 0x0, symName: __ZNSt3__16vectorIN6Halide4TypeENS_9allocatorIS2_EEE16__destroy_vectorC1ERS5_, symObjAddr: 0x3B08, symBinAddr: 0x1000047E8, symSize: 0x34 }
  - { offsetInCU: 0x53CBA, offset: 0x53CBA, size: 0x8, addend: 0x0, symName: __ZNKSt16initializer_listIN6Halide4TypeEE4sizeB7v160006Ev, symObjAddr: 0x3B4C, symBinAddr: 0x10000482C, symSize: 0x18 }
  - { offsetInCU: 0x53CE0, offset: 0x53CE0, size: 0x8, addend: 0x0, symName: __ZNSt3__16vectorIN6Halide4TypeENS_9allocatorIS2_EEE11__vallocateB7v160006Em, symObjAddr: 0x3B64, symBinAddr: 0x100004844, symSize: 0xAC }
  - { offsetInCU: 0x53D24, offset: 0x53D24, size: 0x8, addend: 0x0, symName: __ZNSt3__16vectorIN6Halide4TypeENS_9allocatorIS2_EEE18__construct_at_endIPKS2_Li0EEEvT_S9_m, symObjAddr: 0x3C10, symBinAddr: 0x1000048F0, symSize: 0x8C }
  - { offsetInCU: 0x53D97, offset: 0x53D97, size: 0x8, addend: 0x0, symName: __ZNKSt16initializer_listIN6Halide4TypeEE5beginB7v160006Ev, symObjAddr: 0x3C9C, symBinAddr: 0x10000497C, symSize: 0x18 }
  - { offsetInCU: 0x53DBD, offset: 0x53DBD, size: 0x8, addend: 0x0, symName: __ZNKSt16initializer_listIN6Halide4TypeEE3endB7v160006Ev, symObjAddr: 0x3CB4, symBinAddr: 0x100004994, symSize: 0x20 }
  - { offsetInCU: 0x53DE3, offset: 0x53DE3, size: 0x8, addend: 0x0, symName: __ZNSt3__128__exception_guard_exceptionsINS_6vectorIN6Halide4TypeENS_9allocatorIS3_EEE16__destroy_vectorEE10__completeB7v160006Ev, symObjAddr: 0x3CD4, symBinAddr: 0x1000049B4, symSize: 0x1C }
  - { offsetInCU: 0x53E09, offset: 0x53E09, size: 0x8, addend: 0x0, symName: __ZNSt3__128__exception_guard_exceptionsINS_6vectorIN6Halide4TypeENS_9allocatorIS3_EEE16__destroy_vectorEED1B7v160006Ev, symObjAddr: 0x3CF0, symBinAddr: 0x1000049D0, symSize: 0x2C }
  - { offsetInCU: 0x53E33, offset: 0x53E33, size: 0x8, addend: 0x0, symName: __ZNSt3__117__compressed_pairIPN6Halide4TypeENS_9allocatorIS2_EEEC2B7v160006IDnNS_18__default_init_tagEEEOT_OT0_, symObjAddr: 0x3D1C, symBinAddr: 0x1000049FC, symSize: 0x40 }
  - { offsetInCU: 0x53E8B, offset: 0x53E8B, size: 0x8, addend: 0x0, symName: __ZNSt3__122__compressed_pair_elemIPN6Halide4TypeELi0ELb0EEC2B7v160006IDnvEEOT_, symObjAddr: 0x3D5C, symBinAddr: 0x100004A3C, symSize: 0x1C }
  - { offsetInCU: 0x53ECD, offset: 0x53ECD, size: 0x8, addend: 0x0, symName: __ZNSt3__122__compressed_pair_elemINS_9allocatorIN6Halide4TypeEEELi1ELb1EEC2B7v160006ENS_18__default_init_tagE, symObjAddr: 0x3D78, symBinAddr: 0x100004A58, symSize: 0x2C }
  - { offsetInCU: 0x53F02, offset: 0x53F02, size: 0x8, addend: 0x0, symName: __ZNSt3__19allocatorIN6Halide4TypeEEC2B7v160006Ev, symObjAddr: 0x3DA4, symBinAddr: 0x100004A84, symSize: 0x2C }
  - { offsetInCU: 0x53F2C, offset: 0x53F2C, size: 0x8, addend: 0x0, symName: __ZNSt3__116__non_trivial_ifILb1ENS_9allocatorIN6Halide4TypeEEEEC2B7v160006Ev, symObjAddr: 0x3DD0, symBinAddr: 0x100004AB0, symSize: 0x14 }
  - { offsetInCU: 0x53F56, offset: 0x53F56, size: 0x8, addend: 0x0, symName: __ZNSt3__128__exception_guard_exceptionsINS_6vectorIN6Halide4TypeENS_9allocatorIS3_EEE16__destroy_vectorEEC1B7v160006ES7_, symObjAddr: 0x3DE4, symBinAddr: 0x100004AC4, symSize: 0x34 }
  - { offsetInCU: 0x53F8E, offset: 0x53F8E, size: 0x8, addend: 0x0, symName: __ZNSt3__128__exception_guard_exceptionsINS_6vectorIN6Halide4TypeENS_9allocatorIS3_EEE16__destroy_vectorEEC2B7v160006ES7_, symObjAddr: 0x3E18, symBinAddr: 0x100004AF8, symSize: 0x24 }
  - { offsetInCU: 0x53FC6, offset: 0x53FC6, size: 0x8, addend: 0x0, symName: __ZNSt3__16vectorIN6Halide4TypeENS_9allocatorIS2_EEE16__destroy_vectorC2ERS5_, symObjAddr: 0x3E3C, symBinAddr: 0x100004B1C, symSize: 0x20 }
  - { offsetInCU: 0x53FFF, offset: 0x53FFF, size: 0x8, addend: 0x0, symName: __ZNKSt3__16vectorIN6Halide4TypeENS_9allocatorIS2_EEE8max_sizeEv, symObjAddr: 0x3E5C, symBinAddr: 0x100004B3C, symSize: 0x60 }
  - { offsetInCU: 0x54027, offset: 0x54027, size: 0x8, addend: 0x0, symName: __ZNKSt3__16vectorIN6Halide4TypeENS_9allocatorIS2_EEE20__throw_length_errorB7v160006Ev, symObjAddr: 0x3EBC, symBinAddr: 0x100004B9C, symSize: 0x1C }
  - { offsetInCU: 0x5404D, offset: 0x5404D, size: 0x8, addend: 0x0, symName: __ZNSt3__16vectorIN6Halide4TypeENS_9allocatorIS2_EEE7__allocB7v160006Ev, symObjAddr: 0x3F18, symBinAddr: 0x100004BF8, symSize: 0x28 }
  - { offsetInCU: 0x54073, offset: 0x54073, size: 0x8, addend: 0x0, symName: __ZNSt3__16vectorIN6Halide4TypeENS_9allocatorIS2_EEE9__end_capB7v160006Ev, symObjAddr: 0x3F40, symBinAddr: 0x100004C20, symSize: 0x28 }
  - { offsetInCU: 0x54099, offset: 0x54099, size: 0x8, addend: 0x0, symName: __ZNKSt3__16vectorIN6Halide4TypeENS_9allocatorIS2_EEE14__annotate_newB7v160006Em, symObjAddr: 0x3F68, symBinAddr: 0x100004C48, symSize: 0xAC }
  - { offsetInCU: 0x540D9, offset: 0x540D9, size: 0x8, addend: 0x0, symName: __ZNSt3__116allocator_traitsINS_9allocatorIN6Halide4TypeEEEE8max_sizeB7v160006IS4_vEEmRKS4_, symObjAddr: 0x4040, symBinAddr: 0x100004D20, symSize: 0x24 }
  - { offsetInCU: 0x54107, offset: 0x54107, size: 0x8, addend: 0x0, symName: __ZNKSt3__16vectorIN6Halide4TypeENS_9allocatorIS2_EEE7__allocB7v160006Ev, symObjAddr: 0x4064, symBinAddr: 0x100004D44, symSize: 0x28 }
  - { offsetInCU: 0x5412D, offset: 0x5412D, size: 0x8, addend: 0x0, symName: __ZNSt3__114numeric_limitsIlE3maxB7v160006Ev, symObjAddr: 0x408C, symBinAddr: 0x100004D6C, symSize: 0x14 }
  - { offsetInCU: 0x5414B, offset: 0x5414B, size: 0x8, addend: 0x0, symName: __ZNKSt3__16__lessImmEclB7v160006ERKmS3_, symObjAddr: 0x40F4, symBinAddr: 0x100004DD4, symSize: 0x34 }
  - { offsetInCU: 0x5418D, offset: 0x5418D, size: 0x8, addend: 0x0, symName: __ZNKSt3__19allocatorIN6Halide4TypeEE8max_sizeB7v160006Ev, symObjAddr: 0x4128, symBinAddr: 0x100004E08, symSize: 0x14 }
  - { offsetInCU: 0x541B3, offset: 0x541B3, size: 0x8, addend: 0x0, symName: __ZNKSt3__117__compressed_pairIPN6Halide4TypeENS_9allocatorIS2_EEE6secondB7v160006Ev, symObjAddr: 0x413C, symBinAddr: 0x100004E1C, symSize: 0x24 }
  - { offsetInCU: 0x541D9, offset: 0x541D9, size: 0x8, addend: 0x0, symName: __ZNKSt3__122__compressed_pair_elemINS_9allocatorIN6Halide4TypeEEELi1ELb1EE5__getB7v160006Ev, symObjAddr: 0x4160, symBinAddr: 0x100004E40, symSize: 0x14 }
  - { offsetInCU: 0x541FF, offset: 0x541FF, size: 0x8, addend: 0x0, symName: __ZNSt3__123__libcpp_numeric_limitsIlLb1EE3maxB7v160006Ev, symObjAddr: 0x4174, symBinAddr: 0x100004E54, symSize: 0x8 }
  - { offsetInCU: 0x54213, offset: 0x54213, size: 0x8, addend: 0x0, symName: __ZNSt3__19allocatorIN6Halide4TypeEE8allocateB7v160006Em, symObjAddr: 0x417C, symBinAddr: 0x100004E5C, symSize: 0x58 }
  - { offsetInCU: 0x54247, offset: 0x54247, size: 0x8, addend: 0x0, symName: __ZNSt3__117__compressed_pairIPN6Halide4TypeENS_9allocatorIS2_EEE6secondB7v160006Ev, symObjAddr: 0x41D4, symBinAddr: 0x100004EB4, symSize: 0x24 }
  - { offsetInCU: 0x5426D, offset: 0x5426D, size: 0x8, addend: 0x0, symName: __ZNSt3__122__compressed_pair_elemINS_9allocatorIN6Halide4TypeEEELi1ELb1EE5__getB7v160006Ev, symObjAddr: 0x41F8, symBinAddr: 0x100004ED8, symSize: 0x14 }
  - { offsetInCU: 0x54293, offset: 0x54293, size: 0x8, addend: 0x0, symName: __ZNSt3__117__compressed_pairIPN6Halide4TypeENS_9allocatorIS2_EEE5firstB7v160006Ev, symObjAddr: 0x420C, symBinAddr: 0x100004EEC, symSize: 0x24 }
  - { offsetInCU: 0x542B9, offset: 0x542B9, size: 0x8, addend: 0x0, symName: __ZNSt3__122__compressed_pair_elemIPN6Halide4TypeELi0ELb0EE5__getB7v160006Ev, symObjAddr: 0x4230, symBinAddr: 0x100004F10, symSize: 0x14 }
  - { offsetInCU: 0x542DF, offset: 0x542DF, size: 0x8, addend: 0x0, symName: __ZNKSt3__16vectorIN6Halide4TypeENS_9allocatorIS2_EEE31__annotate_contiguous_containerB7v160006EPKvS7_S7_S7_, symObjAddr: 0x4244, symBinAddr: 0x100004F24, symSize: 0x20 }
  - { offsetInCU: 0x54335, offset: 0x54335, size: 0x8, addend: 0x0, symName: __ZNKSt3__16vectorIN6Halide4TypeENS_9allocatorIS2_EEE4dataB7v160006Ev, symObjAddr: 0x4264, symBinAddr: 0x100004F44, symSize: 0x28 }
  - { offsetInCU: 0x5435B, offset: 0x5435B, size: 0x8, addend: 0x0, symName: __ZNKSt3__16vectorIN6Halide4TypeENS_9allocatorIS2_EEE8capacityB7v160006Ev, symObjAddr: 0x428C, symBinAddr: 0x100004F6C, symSize: 0x40 }
  - { offsetInCU: 0x54381, offset: 0x54381, size: 0x8, addend: 0x0, symName: __ZNKSt3__16vectorIN6Halide4TypeENS_9allocatorIS2_EEE9__end_capB7v160006Ev, symObjAddr: 0x42E0, symBinAddr: 0x100004FC0, symSize: 0x28 }
  - { offsetInCU: 0x543A7, offset: 0x543A7, size: 0x8, addend: 0x0, symName: __ZNKSt3__117__compressed_pairIPN6Halide4TypeENS_9allocatorIS2_EEE5firstB7v160006Ev, symObjAddr: 0x4308, symBinAddr: 0x100004FE8, symSize: 0x24 }
  - { offsetInCU: 0x543CD, offset: 0x543CD, size: 0x8, addend: 0x0, symName: __ZNKSt3__122__compressed_pair_elemIPN6Halide4TypeELi0ELb0EE5__getB7v160006Ev, symObjAddr: 0x432C, symBinAddr: 0x10000500C, symSize: 0x14 }
  - { offsetInCU: 0x5440E, offset: 0x5440E, size: 0x8, addend: 0x0, symName: __ZNSt3__16vectorIN6Halide4TypeENS_9allocatorIS2_EEE21_ConstructTransactionC1B7v160006ERS5_m, symObjAddr: 0x4340, symBinAddr: 0x100005020, symSize: 0x3C }
  - { offsetInCU: 0x54456, offset: 0x54456, size: 0x8, addend: 0x0, symName: __ZNSt3__16vectorIN6Halide4TypeENS_9allocatorIS2_EEE21_ConstructTransactionD1B7v160006Ev, symObjAddr: 0x43B4, symBinAddr: 0x100005094, symSize: 0x2C }
  - { offsetInCU: 0x54480, offset: 0x54480, size: 0x8, addend: 0x0, symName: __ZNSt3__16vectorIN6Halide4TypeENS_9allocatorIS2_EEE21_ConstructTransactionC2B7v160006ERS5_m, symObjAddr: 0x43E0, symBinAddr: 0x1000050C0, symSize: 0x44 }
  - { offsetInCU: 0x544E4, offset: 0x544E4, size: 0x8, addend: 0x0, symName: __ZNKSt3__114__copy_trivialclB7v160006IKN6Halide4TypeES3_Li0EEENS_4pairIPT_PT0_EES7_S7_S9_, symObjAddr: 0x4600, symBinAddr: 0x1000052E0, symSize: 0x48 }
  - { offsetInCU: 0x5456E, offset: 0x5456E, size: 0x8, addend: 0x0, symName: __ZNSt3__14pairIPKN6Halide4TypeES4_EC1B7v160006IS4_S4_LPv0EEEOT_OT0_, symObjAddr: 0x4768, symBinAddr: 0x100005448, symSize: 0x3C }
  - { offsetInCU: 0x545CC, offset: 0x545CC, size: 0x8, addend: 0x0, symName: __ZNSt3__14pairIPKN6Halide4TypeES4_EC2B7v160006IS4_S4_LPv0EEEOT_OT0_, symObjAddr: 0x47A4, symBinAddr: 0x100005484, symSize: 0x34 }
  - { offsetInCU: 0x5462A, offset: 0x5462A, size: 0x8, addend: 0x0, symName: __ZNSt3__118__unwrap_iter_implIPKN6Halide4TypeELb1EE8__unwrapB7v160006ES4_, symObjAddr: 0x47D8, symBinAddr: 0x1000054B8, symSize: 0x24 }
  - { offsetInCU: 0x54659, offset: 0x54659, size: 0x8, addend: 0x0, symName: __ZNSt3__14pairIPKN6Halide4TypeEPS2_EC1B7v160006IRS4_S5_LPv0EEEOT_OT0_, symObjAddr: 0x48CC, symBinAddr: 0x1000055AC, symSize: 0x3C }
  - { offsetInCU: 0x546B7, offset: 0x546B7, size: 0x8, addend: 0x0, symName: __ZNSt3__14pairIPKN6Halide4TypeEPS2_EC2B7v160006IRS4_S5_LPv0EEEOT_OT0_, symObjAddr: 0x4908, symBinAddr: 0x1000055E8, symSize: 0x34 }
  - { offsetInCU: 0x54715, offset: 0x54715, size: 0x8, addend: 0x0, symName: __ZNSt3__118__unwrap_iter_implIPN6Halide4TypeELb1EE8__unwrapB7v160006ES3_, symObjAddr: 0x493C, symBinAddr: 0x10000561C, symSize: 0x24 }
  - { offsetInCU: 0x54738, offset: 0x54738, size: 0x8, addend: 0x0, symName: __ZNSt3__14pairIPKN6Halide4TypeEPS2_EC1B7v160006IS4_S5_LPv0EEEOT_OT0_, symObjAddr: 0x4960, symBinAddr: 0x100005640, symSize: 0x3C }
  - { offsetInCU: 0x54796, offset: 0x54796, size: 0x8, addend: 0x0, symName: __ZNSt3__14pairIPKN6Halide4TypeEPS2_EC2B7v160006IS4_S5_LPv0EEEOT_OT0_, symObjAddr: 0x499C, symBinAddr: 0x10000567C, symSize: 0x34 }
  - { offsetInCU: 0x547F4, offset: 0x547F4, size: 0x8, addend: 0x0, symName: __ZNSt3__118__unwrap_iter_implIPKN6Halide4TypeELb1EE8__rewrapB7v160006ES4_S4_, symObjAddr: 0x4A0C, symBinAddr: 0x1000056EC, symSize: 0x50 }
  - { offsetInCU: 0x54825, offset: 0x54825, size: 0x8, addend: 0x0, symName: __ZNSt3__118__unwrap_iter_implIPN6Halide4TypeELb1EE8__rewrapB7v160006ES3_S3_, symObjAddr: 0x4A5C, symBinAddr: 0x10000573C, symSize: 0x50 }
  - { offsetInCU: 0x54856, offset: 0x54856, size: 0x8, addend: 0x0, symName: __ZNSt3__16vectorIN6Halide4TypeENS_9allocatorIS2_EEE21_ConstructTransactionD2B7v160006Ev, symObjAddr: 0x4AAC, symBinAddr: 0x10000578C, symSize: 0x20 }
  - { offsetInCU: 0x54880, offset: 0x54880, size: 0x8, addend: 0x0, symName: __ZNSt3__128__exception_guard_exceptionsINS_6vectorIN6Halide4TypeENS_9allocatorIS3_EEE16__destroy_vectorEED2B7v160006Ev, symObjAddr: 0x4ACC, symBinAddr: 0x1000057AC, symSize: 0x50 }
  - { offsetInCU: 0x548AA, offset: 0x548AA, size: 0x8, addend: 0x0, symName: __ZNSt3__16vectorIN6Halide4TypeENS_9allocatorIS2_EEE16__destroy_vectorclB7v160006Ev, symObjAddr: 0x4B1C, symBinAddr: 0x1000057FC, symSize: 0x9C }
  - { offsetInCU: 0x548D0, offset: 0x548D0, size: 0x8, addend: 0x0, symName: __ZNKSt3__16vectorIN6Halide4TypeENS_9allocatorIS2_EEE17__annotate_deleteB7v160006Ev, symObjAddr: 0x4BB8, symBinAddr: 0x100005898, symSize: 0xB8 }
  - { offsetInCU: 0x548F6, offset: 0x548F6, size: 0x8, addend: 0x0, symName: __ZNSt3__16vectorIN6Halide4TypeENS_9allocatorIS2_EEE7__clearB7v160006Ev, symObjAddr: 0x4C80, symBinAddr: 0x100005960, symSize: 0x28 }
  - { offsetInCU: 0x5491C, offset: 0x5491C, size: 0x8, addend: 0x0, symName: __ZNSt3__116allocator_traitsINS_9allocatorIN6Halide4TypeEEEE10deallocateB7v160006ERS4_PS3_m, symObjAddr: 0x4CA8, symBinAddr: 0x100005988, symSize: 0x34 }
  - { offsetInCU: 0x5495E, offset: 0x5495E, size: 0x8, addend: 0x0, symName: __ZNKSt3__16vectorIN6Halide4TypeENS_9allocatorIS2_EEE4sizeB7v160006Ev, symObjAddr: 0x4CDC, symBinAddr: 0x1000059BC, symSize: 0x28 }
  - { offsetInCU: 0x54984, offset: 0x54984, size: 0x8, addend: 0x0, symName: __ZNSt3__16vectorIN6Halide4TypeENS_9allocatorIS2_EEE22__base_destruct_at_endB7v160006EPS2_, symObjAddr: 0x4D04, symBinAddr: 0x1000059E4, symSize: 0x8C }
  - { offsetInCU: 0x549C8, offset: 0x549C8, size: 0x8, addend: 0x0, symName: __ZNSt3__116allocator_traitsINS_9allocatorIN6Halide4TypeEEEE7destroyB7v160006IS3_vEEvRS4_PT_, symObjAddr: 0x4D90, symBinAddr: 0x100005A70, symSize: 0x2C }
  - { offsetInCU: 0x54A05, offset: 0x54A05, size: 0x8, addend: 0x0, symName: __ZNSt3__19allocatorIN6Halide4TypeEE7destroyB7v160006EPS2_, symObjAddr: 0x4DBC, symBinAddr: 0x100005A9C, symSize: 0x14 }
  - { offsetInCU: 0x54A39, offset: 0x54A39, size: 0x8, addend: 0x0, symName: __ZNSt3__19allocatorIN6Halide4TypeEE10deallocateB7v160006EPS2_m, symObjAddr: 0x4DD0, symBinAddr: 0x100005AB0, symSize: 0x40 }
  - { offsetInCU: 0x54A7B, offset: 0x54A7B, size: 0x8, addend: 0x0, symName: __ZNSt3__16vectorIN6Halide4TypeENS_9allocatorIS2_EEEC2B7v160006Ev, symObjAddr: 0x4F18, symBinAddr: 0x100005BF8, symSize: 0x54 }
  - { offsetInCU: 0x54AA5, offset: 0x54AA5, size: 0x8, addend: 0x0, symName: __ZN6Halide7Runtime6BufferIhLi2ELi2EE17static_dimensionsEv, symObjAddr: 0x4F6C, symBinAddr: 0x100005C4C, symSize: 0x8 }
  - { offsetInCU: 0x54AB9, offset: 0x54AB9, size: 0x8, addend: 0x0, symName: __ZN6Halide8Internal18GeneratorInputImplINS_6BufferIhLi2EEENS_4FuncEED1Ev, symObjAddr: 0x4F74, symBinAddr: 0x100005C54, symSize: 0x14 }
  - { offsetInCU: 0x54AE6, offset: 0x54AE6, size: 0x8, addend: 0x0, symName: __ZN6Halide8Internal18GeneratorInputImplINS_6BufferIhLi2EEENS_4FuncEED0Ev, symObjAddr: 0x4F88, symBinAddr: 0x100005C68, symSize: 0xC }
  - { offsetInCU: 0x54B13, offset: 0x54B13, size: 0x8, addend: 0x0, symName: __ZNSt3__16vectorIN6Halide4TypeENS_9allocatorIS2_EEED2B7v160006Ev, symObjAddr: 0x4F94, symBinAddr: 0x100005C74, symSize: 0x44 }
  - { offsetInCU: 0x54B3D, offset: 0x54B3D, size: 0x8, addend: 0x0, symName: __ZN6Halide8Internal21GeneratorInput_BufferINS_6BufferIhLi2EEEED2Ev, symObjAddr: 0x4FD8, symBinAddr: 0x100005CB8, symSize: 0x2C }
  - { offsetInCU: 0x54B6A, offset: 0x54B6A, size: 0x8, addend: 0x0, symName: __ZN6Halide8Internal18GeneratorInputImplINS_6BufferIhLi2EEENS_4FuncEED2Ev, symObjAddr: 0x5004, symBinAddr: 0x100005CE4, symSize: 0x2C }
  - { offsetInCU: 0x54B97, offset: 0x54B97, size: 0x8, addend: 0x0, symName: __ZN6Halide15GeneratorOutputINS_6BufferIjLi2EEEEC1ERKNSt3__112basic_stringIcNS4_11char_traitsIcEENS4_9allocatorIcEEEE, symObjAddr: 0x50B4, symBinAddr: 0x100005D94, symSize: 0x34 }
  - { offsetInCU: 0x54BD0, offset: 0x54BD0, size: 0x8, addend: 0x0, symName: __ZN6Halide15GeneratorOutputINS_6BufferIjLi2EEEEC2ERKNSt3__112basic_stringIcNS4_11char_traitsIcEENS4_9allocatorIcEEEE, symObjAddr: 0x50E8, symBinAddr: 0x100005DC8, symSize: 0x4C }
  - { offsetInCU: 0x54C09, offset: 0x54C09, size: 0x8, addend: 0x0, symName: __ZN6Halide8Internal22GeneratorOutput_BufferINS_6BufferIjLi2EEEEC2ERKNSt3__112basic_stringIcNS5_11char_traitsIcEENS5_9allocatorIcEEEE, symObjAddr: 0x5134, symBinAddr: 0x100005E14, symSize: 0x168 }
  - { offsetInCU: 0x54CA1, offset: 0x54CA1, size: 0x8, addend: 0x0, symName: __ZN6Halide15GeneratorOutputINS_6BufferIjLi2EEEED1Ev, symObjAddr: 0x529C, symBinAddr: 0x100005F7C, symSize: 0x2C }
  - { offsetInCU: 0x54CCE, offset: 0x54CCE, size: 0x8, addend: 0x0, symName: __ZN6Halide15GeneratorOutputINS_6BufferIjLi2EEEED0Ev, symObjAddr: 0x52C8, symBinAddr: 0x100005FA8, symSize: 0x30 }
  - { offsetInCU: 0x54CFB, offset: 0x54CFB, size: 0x8, addend: 0x0, symName: __ZNK6Halide8Internal19GeneratorOutputImplINS_6BufferIjLi2EEEE8is_arrayEv, symObjAddr: 0x52F8, symBinAddr: 0x100005FD8, symSize: 0x18 }
  - { offsetInCU: 0x54D21, offset: 0x54D21, size: 0x8, addend: 0x0, symName: __ZNK6Halide8Internal19GeneratorOutputBase15input_or_outputEv, symObjAddr: 0x5310, symBinAddr: 0x100005FF0, symSize: 0x18 }
  - { offsetInCU: 0x54D47, offset: 0x54D47, size: 0x8, addend: 0x0, symName: __ZNK6Halide8Internal22GeneratorOutput_BufferINS_6BufferIjLi2EEEE10get_c_typeEv, symObjAddr: 0x5328, symBinAddr: 0x100006008, symSize: 0x108 }
  - { offsetInCU: 0x54DC9, offset: 0x54DC9, size: 0x8, addend: 0x0, symName: __ZN6Halide6BufferIjLi2EE18static_halide_typeEv, symObjAddr: 0x5430, symBinAddr: 0x100006110, symSize: 0x24 }
  - { offsetInCU: 0x54DDD, offset: 0x54DDD, size: 0x8, addend: 0x0, symName: __ZN6Halide6BufferIjLi2EE17static_dimensionsEv, symObjAddr: 0x5454, symBinAddr: 0x100006134, symSize: 0x14 }
  - { offsetInCU: 0x54DF6, offset: 0x54DF6, size: 0x8, addend: 0x0, symName: __ZN6Halide8Internal19GeneratorOutputImplINS_6BufferIjLi2EEEEC2IS3_LPv0EEERKNSt3__112basic_stringIcNS7_11char_traitsIcEENS7_9allocatorIcEEEENS0_11ArgInfoKindERKNS7_6vectorINS_4TypeENSB_ISI_EEEEi, symObjAddr: 0x5468, symBinAddr: 0x100006148, symSize: 0x64 }
  - { offsetInCU: 0x54E6B, offset: 0x54E6B, size: 0x8, addend: 0x0, symName: __ZN6Halide8Internal22GeneratorOutput_BufferINS_6BufferIjLi2EEEED1Ev, symObjAddr: 0x54CC, symBinAddr: 0x1000061AC, symSize: 0x2C }
  - { offsetInCU: 0x54E98, offset: 0x54E98, size: 0x8, addend: 0x0, symName: __ZN6Halide8Internal22GeneratorOutput_BufferINS_6BufferIjLi2EEEED0Ev, symObjAddr: 0x54F8, symBinAddr: 0x1000061D8, symSize: 0x30 }
  - { offsetInCU: 0x54EE1, offset: 0x54EE1, size: 0x8, addend: 0x0, symName: __ZN6Halide7Runtime6BufferIjLi2ELi2EE18static_halide_typeEv, symObjAddr: 0x5528, symBinAddr: 0x100006208, symSize: 0x74 }
  - { offsetInCU: 0x54F78, offset: 0x54F78, size: 0x8, addend: 0x0, symName: __ZN6Halide7Runtime6BufferIjLi2ELi2EE17static_dimensionsEv, symObjAddr: 0x559C, symBinAddr: 0x10000627C, symSize: 0x8 }
  - { offsetInCU: 0x54F8C, offset: 0x54F8C, size: 0x8, addend: 0x0, symName: __ZN6Halide8Internal19GeneratorOutputImplINS_6BufferIjLi2EEEED1Ev, symObjAddr: 0x55A4, symBinAddr: 0x100006284, symSize: 0x2C }
  - { offsetInCU: 0x54FB9, offset: 0x54FB9, size: 0x8, addend: 0x0, symName: __ZN6Halide8Internal19GeneratorOutputImplINS_6BufferIjLi2EEEED0Ev, symObjAddr: 0x55D0, symBinAddr: 0x1000062B0, symSize: 0x30 }
  - { offsetInCU: 0x54FE6, offset: 0x54FE6, size: 0x8, addend: 0x0, symName: __ZNK6Halide8Internal19GeneratorOutputBase10get_c_typeEv, symObjAddr: 0x5600, symBinAddr: 0x1000062E0, symSize: 0x3C }
  - { offsetInCU: 0x5500C, offset: 0x5500C, size: 0x8, addend: 0x0, symName: __ZN6Halide8Internal19GeneratorOutputImplINS_6BufferIjLi2EEEED2Ev, symObjAddr: 0x563C, symBinAddr: 0x10000631C, symSize: 0x2C }
  - { offsetInCU: 0x55039, offset: 0x55039, size: 0x8, addend: 0x0, symName: __ZN6Halide8Internal22GeneratorOutput_BufferINS_6BufferIjLi2EEEED2Ev, symObjAddr: 0x5668, symBinAddr: 0x100006348, symSize: 0x2C }
  - { offsetInCU: 0x55066, offset: 0x55066, size: 0x8, addend: 0x0, symName: __ZN6Halide15GeneratorOutputINS_6BufferIjLi2EEEED2Ev, symObjAddr: 0x5694, symBinAddr: 0x100006374, symSize: 0x2C }
  - { offsetInCU: 0x55093, offset: 0x55093, size: 0x8, addend: 0x0, symName: __ZN6Halide14GeneratorInputINS_6BufferIhLi2EEEED2Ev, symObjAddr: 0x56C0, symBinAddr: 0x1000063A0, symSize: 0x2C }
  - { offsetInCU: 0x550C0, offset: 0x550C0, size: 0x8, addend: 0x0, symName: __ZN12_GLOBAL__N_112YuvToRgba888D2Ev, symObjAddr: 0x56EC, symBinAddr: 0x1000063CC, symSize: 0x6C }
  - { offsetInCU: 0x550EC, offset: 0x550EC, size: 0x8, addend: 0x0, symName: __ZN6Halide9GeneratorIN12_GLOBAL__N_112YuvToRgba888EE19build_pipeline_implEv, symObjAddr: 0x5758, symBinAddr: 0x100006438, symSize: 0x4C }
  - { offsetInCU: 0x55121, offset: 0x55121, size: 0x8, addend: 0x0, symName: __ZN6Halide9GeneratorIN12_GLOBAL__N_112YuvToRgba888EE18call_generate_implEv, symObjAddr: 0x57A4, symBinAddr: 0x100006484, symSize: 0x40 }
  - { offsetInCU: 0x55156, offset: 0x55156, size: 0x8, addend: 0x0, symName: __ZN6Halide9GeneratorIN12_GLOBAL__N_112YuvToRgba888EE18call_schedule_implEv, symObjAddr: 0x57E4, symBinAddr: 0x1000064C4, symSize: 0x30 }
  - { offsetInCU: 0x5517C, offset: 0x5517C, size: 0x8, addend: 0x0, symName: __ZN12_GLOBAL__N_112YuvToRgba8888generateEv, symObjAddr: 0x5814, symBinAddr: 0x1000064F4, symSize: 0xB68 }
  - { offsetInCU: 0x55231, offset: 0x55231, size: 0x8, addend: 0x0, symName: __ZN12_GLOBAL__N_112YuvToRgba8883i16EN6Halide4ExprE, symObjAddr: 0x637C, symBinAddr: 0x10000705C, symSize: 0x70 }
  - { offsetInCU: 0x55255, offset: 0x55255, size: 0x8, addend: 0x0, symName: __ZNK6Halide8Internal21GeneratorInput_BufferINS_6BufferIhLi2EEEEclIJRNS_3VarES7_EEENS_4ExprEDpOT_, symObjAddr: 0x63EC, symBinAddr: 0x1000070CC, symSize: 0xBC }
  - { offsetInCU: 0x552A9, offset: 0x552A9, size: 0x8, addend: 0x0, symName: __ZN6Halide4ExprD1Ev, symObjAddr: 0x64A8, symBinAddr: 0x100007188, symSize: 0x2C }
  - { offsetInCU: 0x552DC, offset: 0x552DC, size: 0x8, addend: 0x0, symName: __ZNK6Halide8Internal21GeneratorInput_BufferINS_6BufferIhLi2EEEEclIJNS_4ExprES6_EEES6_DpOT_, symObjAddr: 0x64D4, symBinAddr: 0x1000071B4, symSize: 0xBC }
  - { offsetInCU: 0x55330, offset: 0x55330, size: 0x8, addend: 0x0, symName: __ZNK6Halide3VarcvRKNS_4ExprEEv, symObjAddr: 0x6590, symBinAddr: 0x100007270, symSize: 0x14 }
  - { offsetInCU: 0x55356, offset: 0x55356, size: 0x8, addend: 0x0, symName: __ZN6Halide4ExprC1ERKS0_, symObjAddr: 0x65A4, symBinAddr: 0x100007284, symSize: 0x34 }
  - { offsetInCU: 0x5538C, offset: 0x5538C, size: 0x8, addend: 0x0, symName: __ZN12_GLOBAL__N_112YuvToRgba8885clampEN6Halide4ExprE, symObjAddr: 0x65D8, symBinAddr: 0x1000072B8, symSize: 0xDC }
  - { offsetInCU: 0x553B0, offset: 0x553B0, size: 0x8, addend: 0x0, symName: __ZN12_GLOBAL__N_112YuvToRgba8883u32EN6Halide4ExprE, symObjAddr: 0x66B4, symBinAddr: 0x100007394, symSize: 0x70 }
  - { offsetInCU: 0x553D4, offset: 0x553D4, size: 0x8, addend: 0x0, symName: __ZN6Halide4ExprC1Ei, symObjAddr: 0x67BC, symBinAddr: 0x10000749C, symSize: 0x34 }
  - { offsetInCU: 0x5540D, offset: 0x5540D, size: 0x8, addend: 0x0, symName: __ZNK6Halide8Internal19GeneratorOutputImplINS_6BufferIjLi2EEEEclIJRNS_3VarES7_ES3_LPv0EEENS_7FuncRefEDpOT_, symObjAddr: 0x67F0, symBinAddr: 0x1000074D0, symSize: 0x58 }
  - { offsetInCU: 0x55470, offset: 0x55470, size: 0x8, addend: 0x0, symName: __ZN6Halide5StageD1Ev, symObjAddr: 0x6848, symBinAddr: 0x100007528, symSize: 0x2C }
  - { offsetInCU: 0x5549D, offset: 0x5549D, size: 0x8, addend: 0x0, symName: __ZN6Halide7FuncRefD1Ev, symObjAddr: 0x6874, symBinAddr: 0x100007554, symSize: 0x2C }
  - { offsetInCU: 0x554CA, offset: 0x554CA, size: 0x8, addend: 0x0, symName: __ZN6Halide8Internal19GeneratorOutputBase12compute_rootIJEEENSt3__116remove_referenceIDTcldtclL_ZNS3_7declvalINS_4FuncEEEDTclsr3stdE9__declvalIT_ELi0EEEvEE12compute_rootspclsr3stdE7forwardIT_Efp_EEEE4typeEDpOS9_, symObjAddr: 0x68A0, symBinAddr: 0x100007580, symSize: 0x78 }
  - { offsetInCU: 0x554F5, offset: 0x554F5, size: 0x8, addend: 0x0, symName: __ZN6Halide4FuncD1Ev, symObjAddr: 0x6918, symBinAddr: 0x1000075F8, symSize: 0x2C }
  - { offsetInCU: 0x55522, offset: 0x55522, size: 0x8, addend: 0x0, symName: __ZN6Halide3VarD1Ev, symObjAddr: 0x6944, symBinAddr: 0x100007624, symSize: 0x2C }
  - { offsetInCU: 0x5556B, offset: 0x5556B, size: 0x8, addend: 0x0, symName: __ZN6Halide4ExprC1EOS0_, symObjAddr: 0x6AB0, symBinAddr: 0x100007790, symSize: 0x34 }
  - { offsetInCU: 0x555A1, offset: 0x555A1, size: 0x8, addend: 0x0, symName: __ZN6Halide4ExprC2EOS0_, symObjAddr: 0x6AE4, symBinAddr: 0x1000077C4, symSize: 0x34 }
  - { offsetInCU: 0x55609, offset: 0x55609, size: 0x8, addend: 0x0, symName: __ZN6Halide8Internal8IRHandleC2EOS1_, symObjAddr: 0x6B18, symBinAddr: 0x1000077F8, symSize: 0x3C }
  - { offsetInCU: 0x55665, offset: 0x55665, size: 0x8, addend: 0x0, symName: __ZNK6Halide8Internal21GeneratorInput_BufferINS_6BufferIhLi2EEEEcvNS_4FuncEEv, symObjAddr: 0x6B54, symBinAddr: 0x100007834, symSize: 0x4C }
  - { offsetInCU: 0x5568B, offset: 0x5568B, size: 0x8, addend: 0x0, symName: __ZNK6Halide4FuncclIJRNS_3VarES3_EEENSt3__19enable_ifIXsr8Internal19all_are_convertibleIS2_DpT_EE5valueENS_7FuncRefEE4typeEDpOS6_, symObjAddr: 0x6BA0, symBinAddr: 0x100007880, symSize: 0x1B4 }
  - { offsetInCU: 0x556EF, offset: 0x556EF, size: 0x8, addend: 0x0, symName: __ZNKSt3__16vectorIN6Halide4FuncENS_9allocatorIS2_EEE2atEm, symObjAddr: 0x6D54, symBinAddr: 0x100007A34, symSize: 0x60 }
  - { offsetInCU: 0x55726, offset: 0x55726, size: 0x8, addend: 0x0, symName: __ZN6Halide4FuncC1ERKS0_, symObjAddr: 0x6DB4, symBinAddr: 0x100007A94, symSize: 0x34 }
  - { offsetInCU: 0x5575C, offset: 0x5575C, size: 0x8, addend: 0x0, symName: __ZNKSt3__16vectorIN6Halide4FuncENS_9allocatorIS2_EEE4sizeB7v160006Ev, symObjAddr: 0x6DE8, symBinAddr: 0x100007AC8, symSize: 0x28 }
  - { offsetInCU: 0x55782, offset: 0x55782, size: 0x8, addend: 0x0, symName: __ZNKSt3__16vectorIN6Halide4FuncENS_9allocatorIS2_EEE20__throw_out_of_rangeB7v160006Ev, symObjAddr: 0x6E10, symBinAddr: 0x100007AF0, symSize: 0x1C }
  - { offsetInCU: 0x557A8, offset: 0x557A8, size: 0x8, addend: 0x0, symName: __ZNSt12out_of_rangeC1B7v160006EPKc, symObjAddr: 0x6E90, symBinAddr: 0x100007B70, symSize: 0x34 }
  - { offsetInCU: 0x557E0, offset: 0x557E0, size: 0x8, addend: 0x0, symName: __ZNSt12out_of_rangeC2B7v160006EPKc, symObjAddr: 0x6EC4, symBinAddr: 0x100007BA4, symSize: 0x4C }
  - { offsetInCU: 0x55818, offset: 0x55818, size: 0x8, addend: 0x0, symName: __ZN6Halide4FuncC2ERKS0_, symObjAddr: 0x6F10, symBinAddr: 0x100007BF0, symSize: 0x48 }
  - { offsetInCU: 0x5584E, offset: 0x5584E, size: 0x8, addend: 0x0, symName: __ZN6Halide8Internal8FunctionC1ERKS1_, symObjAddr: 0x6F58, symBinAddr: 0x100007C38, symSize: 0x34 }
  - { offsetInCU: 0x55884, offset: 0x55884, size: 0x8, addend: 0x0, symName: __ZN6Halide8PipelineC1ERKS0_, symObjAddr: 0x6F8C, symBinAddr: 0x100007C6C, symSize: 0x34 }
  - { offsetInCU: 0x558BA, offset: 0x558BA, size: 0x8, addend: 0x0, symName: __ZN6Halide8Internal8FunctionC2ERKS1_, symObjAddr: 0x6FC0, symBinAddr: 0x100007CA0, symSize: 0x34 }
  - { offsetInCU: 0x558F0, offset: 0x558F0, size: 0x8, addend: 0x0, symName: __ZN6Halide8Internal11FunctionPtrC1ERKS1_, symObjAddr: 0x6FF4, symBinAddr: 0x100007CD4, symSize: 0x34 }
  - { offsetInCU: 0x55979, offset: 0x55979, size: 0x8, addend: 0x0, symName: __ZN6Halide8Internal11FunctionPtrC2ERKS1_, symObjAddr: 0x7028, symBinAddr: 0x100007D08, symSize: 0x7C }
  - { offsetInCU: 0x559FB, offset: 0x559FB, size: 0x8, addend: 0x0, symName: __ZN6Halide8Internal12IntrusivePtrINS0_13FunctionGroupEE6increfEPS2_, symObjAddr: 0x70A4, symBinAddr: 0x100007D84, symSize: 0x44 }
  - { offsetInCU: 0x55A30, offset: 0x55A30, size: 0x8, addend: 0x0, symName: __ZN6Halide8Internal8RefCount9incrementEv, symObjAddr: 0x70E8, symBinAddr: 0x100007DC8, symSize: 0x24 }
  - { offsetInCU: 0x55A56, offset: 0x55A56, size: 0x8, addend: 0x0, symName: __ZNSt3__113__atomic_baseIiLb1EEppB7v160006Ev, symObjAddr: 0x710C, symBinAddr: 0x100007DEC, symSize: 0x30 }
  - { offsetInCU: 0x55A7C, offset: 0x55A7C, size: 0x8, addend: 0x0, symName: __ZNSt3__113__atomic_baseIiLb1EE9fetch_addB7v160006EiNS_12memory_orderE, symObjAddr: 0x713C, symBinAddr: 0x100007E1C, symSize: 0x34 }
  - { offsetInCU: 0x55B13, offset: 0x55B13, size: 0x8, addend: 0x0, symName: __ZN6Halide8PipelineC2ERKS0_, symObjAddr: 0x7248, symBinAddr: 0x100007F28, symSize: 0x68 }
  - { offsetInCU: 0x55B95, offset: 0x55B95, size: 0x8, addend: 0x0, symName: __ZN6Halide8Internal12IntrusivePtrINS_16PipelineContentsEE6increfEPS2_, symObjAddr: 0x72B0, symBinAddr: 0x100007F90, symSize: 0x44 }
  - { offsetInCU: 0x55BCA, offset: 0x55BCA, size: 0x8, addend: 0x0, symName: __ZN6Halide3VarC1ERKS0_, symObjAddr: 0x72F4, symBinAddr: 0x100007FD4, symSize: 0x34 }
  - { offsetInCU: 0x55C00, offset: 0x55C00, size: 0x8, addend: 0x0, symName: __ZNSt3__16vectorIN6Halide3VarENS_9allocatorIS2_EEEC1B7v160006ESt16initializer_listIS2_E, symObjAddr: 0x7328, symBinAddr: 0x100008008, symSize: 0x3C }
  - { offsetInCU: 0x55C3B, offset: 0x55C3B, size: 0x8, addend: 0x0, symName: __ZNSt3__16vectorIN6Halide3VarENS_9allocatorIS2_EEEC1ERKS5_, symObjAddr: 0x7364, symBinAddr: 0x100008044, symSize: 0x34 }
  - { offsetInCU: 0x55C76, offset: 0x55C76, size: 0x8, addend: 0x0, symName: __ZNSt3__16vectorIN6Halide3VarENS_9allocatorIS2_EEED1B7v160006Ev, symObjAddr: 0x7398, symBinAddr: 0x100008078, symSize: 0x2C }
  - { offsetInCU: 0x55CA0, offset: 0x55CA0, size: 0x8, addend: 0x0, symName: __ZN6Halide3VarC2ERKS0_, symObjAddr: 0x73C4, symBinAddr: 0x1000080A4, symSize: 0x34 }
  - { offsetInCU: 0x55CD6, offset: 0x55CD6, size: 0x8, addend: 0x0, symName: __ZNSt3__16vectorIN6Halide3VarENS_9allocatorIS2_EEEC2B7v160006ESt16initializer_listIS2_E, symObjAddr: 0x73F8, symBinAddr: 0x1000080D8, symSize: 0x124 }
  - { offsetInCU: 0x55D28, offset: 0x55D28, size: 0x8, addend: 0x0, symName: __ZNSt3__117__compressed_pairIPN6Halide3VarENS_9allocatorIS2_EEEC1B7v160006IDnNS_18__default_init_tagEEEOT_OT0_, symObjAddr: 0x751C, symBinAddr: 0x1000081FC, symSize: 0x3C }
  - { offsetInCU: 0x55D80, offset: 0x55D80, size: 0x8, addend: 0x0, symName: __ZNSt3__16vectorIN6Halide3VarENS_9allocatorIS2_EEE16__destroy_vectorC1ERS5_, symObjAddr: 0x7598, symBinAddr: 0x100008278, symSize: 0x34 }
  - { offsetInCU: 0x55DB9, offset: 0x55DB9, size: 0x8, addend: 0x0, symName: __ZNKSt16initializer_listIN6Halide3VarEE4sizeB7v160006Ev, symObjAddr: 0x75DC, symBinAddr: 0x1000082BC, symSize: 0x18 }
  - { offsetInCU: 0x55DDF, offset: 0x55DDF, size: 0x8, addend: 0x0, symName: __ZNSt3__16vectorIN6Halide3VarENS_9allocatorIS2_EEE11__vallocateB7v160006Em, symObjAddr: 0x75F4, symBinAddr: 0x1000082D4, symSize: 0xAC }
  - { offsetInCU: 0x55E23, offset: 0x55E23, size: 0x8, addend: 0x0, symName: __ZNSt3__16vectorIN6Halide3VarENS_9allocatorIS2_EEE18__construct_at_endIPKS2_Li0EEEvT_S9_m, symObjAddr: 0x76A0, symBinAddr: 0x100008380, symSize: 0x8C }
  - { offsetInCU: 0x55E96, offset: 0x55E96, size: 0x8, addend: 0x0, symName: __ZNKSt16initializer_listIN6Halide3VarEE5beginB7v160006Ev, symObjAddr: 0x772C, symBinAddr: 0x10000840C, symSize: 0x18 }
  - { offsetInCU: 0x55EBC, offset: 0x55EBC, size: 0x8, addend: 0x0, symName: __ZNKSt16initializer_listIN6Halide3VarEE3endB7v160006Ev, symObjAddr: 0x7744, symBinAddr: 0x100008424, symSize: 0x20 }
  - { offsetInCU: 0x55EE2, offset: 0x55EE2, size: 0x8, addend: 0x0, symName: __ZNSt3__128__exception_guard_exceptionsINS_6vectorIN6Halide3VarENS_9allocatorIS3_EEE16__destroy_vectorEE10__completeB7v160006Ev, symObjAddr: 0x7764, symBinAddr: 0x100008444, symSize: 0x1C }
  - { offsetInCU: 0x55F08, offset: 0x55F08, size: 0x8, addend: 0x0, symName: __ZNSt3__128__exception_guard_exceptionsINS_6vectorIN6Halide3VarENS_9allocatorIS3_EEE16__destroy_vectorEED1B7v160006Ev, symObjAddr: 0x7780, symBinAddr: 0x100008460, symSize: 0x2C }
  - { offsetInCU: 0x55F32, offset: 0x55F32, size: 0x8, addend: 0x0, symName: __ZNSt3__117__compressed_pairIPN6Halide3VarENS_9allocatorIS2_EEEC2B7v160006IDnNS_18__default_init_tagEEEOT_OT0_, symObjAddr: 0x77AC, symBinAddr: 0x10000848C, symSize: 0x40 }
  - { offsetInCU: 0x55F8A, offset: 0x55F8A, size: 0x8, addend: 0x0, symName: __ZNSt3__122__compressed_pair_elemIPN6Halide3VarELi0ELb0EEC2B7v160006IDnvEEOT_, symObjAddr: 0x77EC, symBinAddr: 0x1000084CC, symSize: 0x1C }
  - { offsetInCU: 0x55FCC, offset: 0x55FCC, size: 0x8, addend: 0x0, symName: __ZNSt3__122__compressed_pair_elemINS_9allocatorIN6Halide3VarEEELi1ELb1EEC2B7v160006ENS_18__default_init_tagE, symObjAddr: 0x7808, symBinAddr: 0x1000084E8, symSize: 0x2C }
  - { offsetInCU: 0x56001, offset: 0x56001, size: 0x8, addend: 0x0, symName: __ZNSt3__19allocatorIN6Halide3VarEEC2B7v160006Ev, symObjAddr: 0x7834, symBinAddr: 0x100008514, symSize: 0x2C }
  - { offsetInCU: 0x5602B, offset: 0x5602B, size: 0x8, addend: 0x0, symName: __ZNSt3__116__non_trivial_ifILb1ENS_9allocatorIN6Halide3VarEEEEC2B7v160006Ev, symObjAddr: 0x7860, symBinAddr: 0x100008540, symSize: 0x14 }
  - { offsetInCU: 0x56055, offset: 0x56055, size: 0x8, addend: 0x0, symName: __ZNSt3__128__exception_guard_exceptionsINS_6vectorIN6Halide3VarENS_9allocatorIS3_EEE16__destroy_vectorEEC1B7v160006ES7_, symObjAddr: 0x7874, symBinAddr: 0x100008554, symSize: 0x34 }
  - { offsetInCU: 0x5608D, offset: 0x5608D, size: 0x8, addend: 0x0, symName: __ZNSt3__128__exception_guard_exceptionsINS_6vectorIN6Halide3VarENS_9allocatorIS3_EEE16__destroy_vectorEEC2B7v160006ES7_, symObjAddr: 0x78A8, symBinAddr: 0x100008588, symSize: 0x24 }
  - { offsetInCU: 0x560C5, offset: 0x560C5, size: 0x8, addend: 0x0, symName: __ZNSt3__16vectorIN6Halide3VarENS_9allocatorIS2_EEE16__destroy_vectorC2ERS5_, symObjAddr: 0x78CC, symBinAddr: 0x1000085AC, symSize: 0x20 }
  - { offsetInCU: 0x560FE, offset: 0x560FE, size: 0x8, addend: 0x0, symName: __ZNKSt3__16vectorIN6Halide3VarENS_9allocatorIS2_EEE8max_sizeEv, symObjAddr: 0x78EC, symBinAddr: 0x1000085CC, symSize: 0x60 }
  - { offsetInCU: 0x56126, offset: 0x56126, size: 0x8, addend: 0x0, symName: __ZNKSt3__16vectorIN6Halide3VarENS_9allocatorIS2_EEE20__throw_length_errorB7v160006Ev, symObjAddr: 0x794C, symBinAddr: 0x10000862C, symSize: 0x1C }
  - { offsetInCU: 0x5614C, offset: 0x5614C, size: 0x8, addend: 0x0, symName: __ZNSt3__16vectorIN6Halide3VarENS_9allocatorIS2_EEE7__allocB7v160006Ev, symObjAddr: 0x79A8, symBinAddr: 0x100008688, symSize: 0x28 }
  - { offsetInCU: 0x56172, offset: 0x56172, size: 0x8, addend: 0x0, symName: __ZNSt3__16vectorIN6Halide3VarENS_9allocatorIS2_EEE9__end_capB7v160006Ev, symObjAddr: 0x79D0, symBinAddr: 0x1000086B0, symSize: 0x28 }
  - { offsetInCU: 0x56198, offset: 0x56198, size: 0x8, addend: 0x0, symName: __ZNKSt3__16vectorIN6Halide3VarENS_9allocatorIS2_EEE14__annotate_newB7v160006Em, symObjAddr: 0x79F8, symBinAddr: 0x1000086D8, symSize: 0xAC }
  - { offsetInCU: 0x561D8, offset: 0x561D8, size: 0x8, addend: 0x0, symName: __ZNSt3__116allocator_traitsINS_9allocatorIN6Halide3VarEEEE8max_sizeB7v160006IS4_vEEmRKS4_, symObjAddr: 0x7AA4, symBinAddr: 0x100008784, symSize: 0x24 }
  - { offsetInCU: 0x56206, offset: 0x56206, size: 0x8, addend: 0x0, symName: __ZNKSt3__16vectorIN6Halide3VarENS_9allocatorIS2_EEE7__allocB7v160006Ev, symObjAddr: 0x7AC8, symBinAddr: 0x1000087A8, symSize: 0x28 }
  - { offsetInCU: 0x5622C, offset: 0x5622C, size: 0x8, addend: 0x0, symName: __ZNKSt3__19allocatorIN6Halide3VarEE8max_sizeB7v160006Ev, symObjAddr: 0x7AF0, symBinAddr: 0x1000087D0, symSize: 0x14 }
  - { offsetInCU: 0x56252, offset: 0x56252, size: 0x8, addend: 0x0, symName: __ZNKSt3__117__compressed_pairIPN6Halide3VarENS_9allocatorIS2_EEE6secondB7v160006Ev, symObjAddr: 0x7B04, symBinAddr: 0x1000087E4, symSize: 0x24 }
  - { offsetInCU: 0x56278, offset: 0x56278, size: 0x8, addend: 0x0, symName: __ZNKSt3__122__compressed_pair_elemINS_9allocatorIN6Halide3VarEEELi1ELb1EE5__getB7v160006Ev, symObjAddr: 0x7B28, symBinAddr: 0x100008808, symSize: 0x14 }
  - { offsetInCU: 0x5629E, offset: 0x5629E, size: 0x8, addend: 0x0, symName: __ZNSt3__19allocatorIN6Halide3VarEE8allocateB7v160006Em, symObjAddr: 0x7B3C, symBinAddr: 0x10000881C, symSize: 0x58 }
  - { offsetInCU: 0x562D2, offset: 0x562D2, size: 0x8, addend: 0x0, symName: __ZNSt3__117__compressed_pairIPN6Halide3VarENS_9allocatorIS2_EEE6secondB7v160006Ev, symObjAddr: 0x7B94, symBinAddr: 0x100008874, symSize: 0x24 }
  - { offsetInCU: 0x562F8, offset: 0x562F8, size: 0x8, addend: 0x0, symName: __ZNSt3__122__compressed_pair_elemINS_9allocatorIN6Halide3VarEEELi1ELb1EE5__getB7v160006Ev, symObjAddr: 0x7BB8, symBinAddr: 0x100008898, symSize: 0x14 }
  - { offsetInCU: 0x5631E, offset: 0x5631E, size: 0x8, addend: 0x0, symName: __ZNSt3__117__compressed_pairIPN6Halide3VarENS_9allocatorIS2_EEE5firstB7v160006Ev, symObjAddr: 0x7BCC, symBinAddr: 0x1000088AC, symSize: 0x24 }
  - { offsetInCU: 0x56344, offset: 0x56344, size: 0x8, addend: 0x0, symName: __ZNSt3__122__compressed_pair_elemIPN6Halide3VarELi0ELb0EE5__getB7v160006Ev, symObjAddr: 0x7BF0, symBinAddr: 0x1000088D0, symSize: 0x14 }
  - { offsetInCU: 0x5636A, offset: 0x5636A, size: 0x8, addend: 0x0, symName: __ZNKSt3__16vectorIN6Halide3VarENS_9allocatorIS2_EEE31__annotate_contiguous_containerB7v160006EPKvS7_S7_S7_, symObjAddr: 0x7C04, symBinAddr: 0x1000088E4, symSize: 0x20 }
  - { offsetInCU: 0x563C0, offset: 0x563C0, size: 0x8, addend: 0x0, symName: __ZNKSt3__16vectorIN6Halide3VarENS_9allocatorIS2_EEE4dataB7v160006Ev, symObjAddr: 0x7C24, symBinAddr: 0x100008904, symSize: 0x28 }
  - { offsetInCU: 0x563E6, offset: 0x563E6, size: 0x8, addend: 0x0, symName: __ZNKSt3__16vectorIN6Halide3VarENS_9allocatorIS2_EEE8capacityB7v160006Ev, symObjAddr: 0x7C4C, symBinAddr: 0x10000892C, symSize: 0x40 }
  - { offsetInCU: 0x5640C, offset: 0x5640C, size: 0x8, addend: 0x0, symName: __ZNKSt3__16vectorIN6Halide3VarENS_9allocatorIS2_EEE9__end_capB7v160006Ev, symObjAddr: 0x7CA0, symBinAddr: 0x100008980, symSize: 0x28 }
  - { offsetInCU: 0x56432, offset: 0x56432, size: 0x8, addend: 0x0, symName: __ZNKSt3__117__compressed_pairIPN6Halide3VarENS_9allocatorIS2_EEE5firstB7v160006Ev, symObjAddr: 0x7CC8, symBinAddr: 0x1000089A8, symSize: 0x24 }
  - { offsetInCU: 0x56458, offset: 0x56458, size: 0x8, addend: 0x0, symName: __ZNKSt3__122__compressed_pair_elemIPN6Halide3VarELi0ELb0EE5__getB7v160006Ev, symObjAddr: 0x7CEC, symBinAddr: 0x1000089CC, symSize: 0x14 }
  - { offsetInCU: 0x56499, offset: 0x56499, size: 0x8, addend: 0x0, symName: __ZNSt3__16vectorIN6Halide3VarENS_9allocatorIS2_EEE21_ConstructTransactionC1B7v160006ERS5_m, symObjAddr: 0x7D00, symBinAddr: 0x1000089E0, symSize: 0x3C }
  - { offsetInCU: 0x564E1, offset: 0x564E1, size: 0x8, addend: 0x0, symName: __ZNSt3__16vectorIN6Halide3VarENS_9allocatorIS2_EEE21_ConstructTransactionD1B7v160006Ev, symObjAddr: 0x7E30, symBinAddr: 0x100008B10, symSize: 0x2C }
  - { offsetInCU: 0x5650B, offset: 0x5650B, size: 0x8, addend: 0x0, symName: __ZNSt3__16vectorIN6Halide3VarENS_9allocatorIS2_EEE21_ConstructTransactionC2B7v160006ERS5_m, symObjAddr: 0x7E5C, symBinAddr: 0x100008B3C, symSize: 0x44 }
  - { offsetInCU: 0x56553, offset: 0x56553, size: 0x8, addend: 0x0, symName: __ZNSt3__129_AllocatorDestroyRangeReverseINS_9allocatorIN6Halide3VarEEEPS3_EC1B7v160006ERS4_RS5_S8_, symObjAddr: 0x7EEC, symBinAddr: 0x100008BCC, symSize: 0x44 }
  - { offsetInCU: 0x565AA, offset: 0x565AA, size: 0x8, addend: 0x0, symName: __ZNSt3__116allocator_traitsINS_9allocatorIN6Halide3VarEEEE9constructB7v160006IS3_JRKS3_EvEEvRS4_PT_DpOT0_, symObjAddr: 0x7F30, symBinAddr: 0x100008C10, symSize: 0x34 }
  - { offsetInCU: 0x56601, offset: 0x56601, size: 0x8, addend: 0x0, symName: __ZNSt3__128__exception_guard_exceptionsINS_29_AllocatorDestroyRangeReverseINS_9allocatorIN6Halide3VarEEEPS4_EEE10__completeB7v160006Ev, symObjAddr: 0x7F64, symBinAddr: 0x100008C44, symSize: 0x1C }
  - { offsetInCU: 0x56627, offset: 0x56627, size: 0x8, addend: 0x0, symName: __ZNSt3__128__exception_guard_exceptionsINS_29_AllocatorDestroyRangeReverseINS_9allocatorIN6Halide3VarEEEPS4_EEED1B7v160006Ev, symObjAddr: 0x7F80, symBinAddr: 0x100008C60, symSize: 0x2C }
  - { offsetInCU: 0x56651, offset: 0x56651, size: 0x8, addend: 0x0, symName: __ZNSt3__128__exception_guard_exceptionsINS_29_AllocatorDestroyRangeReverseINS_9allocatorIN6Halide3VarEEEPS4_EEEC1B7v160006ES7_, symObjAddr: 0x7FAC, symBinAddr: 0x100008C8C, symSize: 0x34 }
  - { offsetInCU: 0x5668A, offset: 0x5668A, size: 0x8, addend: 0x0, symName: __ZNSt3__128__exception_guard_exceptionsINS_29_AllocatorDestroyRangeReverseINS_9allocatorIN6Halide3VarEEEPS4_EEEC2B7v160006ES7_, symObjAddr: 0x7FE0, symBinAddr: 0x100008CC0, symSize: 0x30 }
  - { offsetInCU: 0x566C3, offset: 0x566C3, size: 0x8, addend: 0x0, symName: __ZNSt3__129_AllocatorDestroyRangeReverseINS_9allocatorIN6Halide3VarEEEPS3_EC2B7v160006ERS4_RS5_S8_, symObjAddr: 0x8010, symBinAddr: 0x100008CF0, symSize: 0x38 }
  - { offsetInCU: 0x5671A, offset: 0x5671A, size: 0x8, addend: 0x0, symName: __ZNSt3__19allocatorIN6Halide3VarEE9constructB7v160006IS2_JRKS2_EEEvPT_DpOT0_, symObjAddr: 0x8048, symBinAddr: 0x100008D28, symSize: 0x30 }
  - { offsetInCU: 0x56770, offset: 0x56770, size: 0x8, addend: 0x0, symName: __ZNSt3__128__exception_guard_exceptionsINS_29_AllocatorDestroyRangeReverseINS_9allocatorIN6Halide3VarEEEPS4_EEED2B7v160006Ev, symObjAddr: 0x8078, symBinAddr: 0x100008D58, symSize: 0x50 }
  - { offsetInCU: 0x5679A, offset: 0x5679A, size: 0x8, addend: 0x0, symName: __ZNKSt3__129_AllocatorDestroyRangeReverseINS_9allocatorIN6Halide3VarEEEPS3_EclB7v160006Ev, symObjAddr: 0x80C8, symBinAddr: 0x100008DA8, symSize: 0x68 }
  - { offsetInCU: 0x567C0, offset: 0x567C0, size: 0x8, addend: 0x0, symName: __ZNSt3__116reverse_iteratorIPN6Halide3VarEEC1B7v160006ES3_, symObjAddr: 0x81A0, symBinAddr: 0x100008E80, symSize: 0x34 }
  - { offsetInCU: 0x567F8, offset: 0x567F8, size: 0x8, addend: 0x0, symName: __ZNSt3__116allocator_traitsINS_9allocatorIN6Halide3VarEEEE7destroyB7v160006IS3_vEEvRS4_PT_, symObjAddr: 0x821C, symBinAddr: 0x100008EFC, symSize: 0x2C }
  - { offsetInCU: 0x56835, offset: 0x56835, size: 0x8, addend: 0x0, symName: __ZNSt3__116reverse_iteratorIPN6Halide3VarEEppB7v160006Ev, symObjAddr: 0x826C, symBinAddr: 0x100008F4C, symSize: 0x20 }
  - { offsetInCU: 0x5685B, offset: 0x5685B, size: 0x8, addend: 0x0, symName: __ZNKSt3__116reverse_iteratorIPN6Halide3VarEE4baseB7v160006Ev, symObjAddr: 0x828C, symBinAddr: 0x100008F6C, symSize: 0x18 }
  - { offsetInCU: 0x56881, offset: 0x56881, size: 0x8, addend: 0x0, symName: __ZNSt3__19allocatorIN6Halide3VarEE7destroyB7v160006EPS2_, symObjAddr: 0x82A4, symBinAddr: 0x100008F84, symSize: 0x28 }
  - { offsetInCU: 0x568BB, offset: 0x568BB, size: 0x8, addend: 0x0, symName: __ZNSt3__119__to_address_helperINS_16reverse_iteratorIPN6Halide3VarEEEvE6__callB7v160006ERKS5_, symObjAddr: 0x82CC, symBinAddr: 0x100008FAC, symSize: 0x38 }
  - { offsetInCU: 0x568DE, offset: 0x568DE, size: 0x8, addend: 0x0, symName: __ZNKSt3__116reverse_iteratorIPN6Halide3VarEEptB7v160006Ev, symObjAddr: 0x8304, symBinAddr: 0x100008FE4, symSize: 0x24 }
  - { offsetInCU: 0x56904, offset: 0x56904, size: 0x8, addend: 0x0, symName: __ZNKSt3__116reverse_iteratorIPN6Halide3VarEEdeB7v160006Ev, symObjAddr: 0x8328, symBinAddr: 0x100009008, symSize: 0x28 }
  - { offsetInCU: 0x56939, offset: 0x56939, size: 0x8, addend: 0x0, symName: __ZNSt3__116reverse_iteratorIPN6Halide3VarEEC2B7v160006ES3_, symObjAddr: 0x8350, symBinAddr: 0x100009030, symSize: 0x28 }
  - { offsetInCU: 0x56971, offset: 0x56971, size: 0x8, addend: 0x0, symName: __ZNSt3__16vectorIN6Halide3VarENS_9allocatorIS2_EEE21_ConstructTransactionD2B7v160006Ev, symObjAddr: 0x8378, symBinAddr: 0x100009058, symSize: 0x20 }
  - { offsetInCU: 0x5699B, offset: 0x5699B, size: 0x8, addend: 0x0, symName: __ZNSt3__128__exception_guard_exceptionsINS_6vectorIN6Halide3VarENS_9allocatorIS3_EEE16__destroy_vectorEED2B7v160006Ev, symObjAddr: 0x8398, symBinAddr: 0x100009078, symSize: 0x50 }
  - { offsetInCU: 0x569C5, offset: 0x569C5, size: 0x8, addend: 0x0, symName: __ZNSt3__16vectorIN6Halide3VarENS_9allocatorIS2_EEE16__destroy_vectorclB7v160006Ev, symObjAddr: 0x83E8, symBinAddr: 0x1000090C8, symSize: 0x9C }
  - { offsetInCU: 0x569EB, offset: 0x569EB, size: 0x8, addend: 0x0, symName: __ZNKSt3__16vectorIN6Halide3VarENS_9allocatorIS2_EEE17__annotate_deleteB7v160006Ev, symObjAddr: 0x8484, symBinAddr: 0x100009164, symSize: 0xB8 }
  - { offsetInCU: 0x56A11, offset: 0x56A11, size: 0x8, addend: 0x0, symName: __ZNSt3__16vectorIN6Halide3VarENS_9allocatorIS2_EEE7__clearB7v160006Ev, symObjAddr: 0x854C, symBinAddr: 0x10000922C, symSize: 0x28 }
  - { offsetInCU: 0x56A37, offset: 0x56A37, size: 0x8, addend: 0x0, symName: __ZNSt3__116allocator_traitsINS_9allocatorIN6Halide3VarEEEE10deallocateB7v160006ERS4_PS3_m, symObjAddr: 0x8574, symBinAddr: 0x100009254, symSize: 0x34 }
  - { offsetInCU: 0x56A79, offset: 0x56A79, size: 0x8, addend: 0x0, symName: __ZNKSt3__16vectorIN6Halide3VarENS_9allocatorIS2_EEE4sizeB7v160006Ev, symObjAddr: 0x85A8, symBinAddr: 0x100009288, symSize: 0x28 }
  - { offsetInCU: 0x56A9F, offset: 0x56A9F, size: 0x8, addend: 0x0, symName: __ZNSt3__16vectorIN6Halide3VarENS_9allocatorIS2_EEE22__base_destruct_at_endB7v160006EPS2_, symObjAddr: 0x85D0, symBinAddr: 0x1000092B0, symSize: 0x8C }
  - { offsetInCU: 0x56AE3, offset: 0x56AE3, size: 0x8, addend: 0x0, symName: __ZNSt3__19allocatorIN6Halide3VarEE10deallocateB7v160006EPS2_m, symObjAddr: 0x865C, symBinAddr: 0x10000933C, symSize: 0x40 }
  - { offsetInCU: 0x56B25, offset: 0x56B25, size: 0x8, addend: 0x0, symName: __ZNSt3__16vectorIN6Halide3VarENS_9allocatorIS2_EEEC2ERKS5_, symObjAddr: 0x869C, symBinAddr: 0x10000937C, symSize: 0x110 }
  - { offsetInCU: 0x56B85, offset: 0x56B85, size: 0x8, addend: 0x0, symName: __ZNSt3__116allocator_traitsINS_9allocatorIN6Halide3VarEEEE37select_on_container_copy_constructionB7v160006IS4_vvEES4_RKS4_, symObjAddr: 0x87AC, symBinAddr: 0x10000948C, symSize: 0x10 }
  - { offsetInCU: 0x56BBA, offset: 0x56BBA, size: 0x8, addend: 0x0, symName: __ZNSt3__117__compressed_pairIPN6Halide3VarENS_9allocatorIS2_EEEC1B7v160006IDnS5_EEOT_OT0_, symObjAddr: 0x87BC, symBinAddr: 0x10000949C, symSize: 0x3C }
  - { offsetInCU: 0x56C12, offset: 0x56C12, size: 0x8, addend: 0x0, symName: __ZNSt3__16vectorIN6Halide3VarENS_9allocatorIS2_EEE18__construct_at_endIPS2_Li0EEEvT_S8_m, symObjAddr: 0x87F8, symBinAddr: 0x1000094D8, symSize: 0x8C }
  - { offsetInCU: 0x56C85, offset: 0x56C85, size: 0x8, addend: 0x0, symName: __ZNSt3__117__compressed_pairIPN6Halide3VarENS_9allocatorIS2_EEEC2B7v160006IDnS5_EEOT_OT0_, symObjAddr: 0x8884, symBinAddr: 0x100009564, symSize: 0x44 }
  - { offsetInCU: 0x56CDD, offset: 0x56CDD, size: 0x8, addend: 0x0, symName: __ZNSt3__122__compressed_pair_elemINS_9allocatorIN6Halide3VarEEELi1ELb1EEC2B7v160006IS4_vEEOT_, symObjAddr: 0x88C8, symBinAddr: 0x1000095A8, symSize: 0x18 }
  - { offsetInCU: 0x56D1F, offset: 0x56D1F, size: 0x8, addend: 0x0, symName: __ZNSt3__116allocator_traitsINS_9allocatorIN6Halide3VarEEEE9constructB7v160006IS3_JRS3_EvEEvRS4_PT_DpOT0_, symObjAddr: 0x89D4, symBinAddr: 0x1000096B4, symSize: 0x34 }
  - { offsetInCU: 0x56D76, offset: 0x56D76, size: 0x8, addend: 0x0, symName: __ZNSt3__19allocatorIN6Halide3VarEE9constructB7v160006IS2_JRS2_EEEvPT_DpOT0_, symObjAddr: 0x8A08, symBinAddr: 0x1000096E8, symSize: 0x30 }
  - { offsetInCU: 0x56DCC, offset: 0x56DCC, size: 0x8, addend: 0x0, symName: __ZNSt3__16vectorIN6Halide3VarENS_9allocatorIS2_EEED2B7v160006Ev, symObjAddr: 0x8A38, symBinAddr: 0x100009718, symSize: 0x44 }
  - { offsetInCU: 0x56DF6, offset: 0x56DF6, size: 0x8, addend: 0x0, symName: __ZN6Halide4ExprD2Ev, symObjAddr: 0x8A7C, symBinAddr: 0x10000975C, symSize: 0x2C }
  - { offsetInCU: 0x56E23, offset: 0x56E23, size: 0x8, addend: 0x0, symName: __ZN6Halide8Internal8IRHandleD2Ev, symObjAddr: 0x8AA8, symBinAddr: 0x100009788, symSize: 0x2C }
  - { offsetInCU: 0x56E50, offset: 0x56E50, size: 0x8, addend: 0x0, symName: __ZN6Halide8Internal12IntrusivePtrIKNS0_6IRNodeEED2Ev, symObjAddr: 0x8AD4, symBinAddr: 0x1000097B4, symSize: 0x38 }
  - { offsetInCU: 0x56E7A, offset: 0x56E7A, size: 0x8, addend: 0x0, symName: __ZN6Halide8Internal12IntrusivePtrIKNS0_6IRNodeEE6decrefEPS3_, symObjAddr: 0x8B0C, symBinAddr: 0x1000097EC, symSize: 0x60 }
  - { offsetInCU: 0x56EAF, offset: 0x56EAF, size: 0x8, addend: 0x0, symName: __ZN6Halide8Internal8RefCount9decrementEv, symObjAddr: 0x8B84, symBinAddr: 0x100009864, symSize: 0x24 }
  - { offsetInCU: 0x56ED5, offset: 0x56ED5, size: 0x8, addend: 0x0, symName: __ZNSt3__113__atomic_baseIiLb1EEmmB7v160006Ev, symObjAddr: 0x8BF0, symBinAddr: 0x1000098D0, symSize: 0x30 }
  - { offsetInCU: 0x56EFB, offset: 0x56EFB, size: 0x8, addend: 0x0, symName: __ZNSt3__113__atomic_baseIiLb1EE9fetch_subB7v160006EiNS_12memory_orderE, symObjAddr: 0x8C20, symBinAddr: 0x100009900, symSize: 0x34 }
  - { offsetInCU: 0x56F3F, offset: 0x56F3F, size: 0x8, addend: 0x0, symName: __ZNK6Halide4FuncclIJNS_4ExprEEEENSt3__19enable_ifIXsr8Internal19all_are_convertibleIS2_DpT_EE5valueENS_7FuncRefEE4typeERKS2_DpOS5_, symObjAddr: 0x8D40, symBinAddr: 0x100009A20, symSize: 0x1B4 }
  - { offsetInCU: 0x56F9E, offset: 0x56F9E, size: 0x8, addend: 0x0, symName: __ZNSt3__16vectorIN6Halide4ExprENS_9allocatorIS2_EEEC1B7v160006ESt16initializer_listIS2_E, symObjAddr: 0x8EF4, symBinAddr: 0x100009BD4, symSize: 0x3C }
  - { offsetInCU: 0x56FD9, offset: 0x56FD9, size: 0x8, addend: 0x0, symName: __ZNSt3__16vectorIN6Halide4ExprENS_9allocatorIS2_EEEC1ERKS5_, symObjAddr: 0x8F30, symBinAddr: 0x100009C10, symSize: 0x34 }
  - { offsetInCU: 0x57014, offset: 0x57014, size: 0x8, addend: 0x0, symName: __ZNSt3__16vectorIN6Halide4ExprENS_9allocatorIS2_EEED1B7v160006Ev, symObjAddr: 0x8F64, symBinAddr: 0x100009C44, symSize: 0x2C }
  - { offsetInCU: 0x5703E, offset: 0x5703E, size: 0x8, addend: 0x0, symName: __ZNSt3__16vectorIN6Halide4ExprENS_9allocatorIS2_EEEC2B7v160006ESt16initializer_listIS2_E, symObjAddr: 0x8F90, symBinAddr: 0x100009C70, symSize: 0x124 }
  - { offsetInCU: 0x57090, offset: 0x57090, size: 0x8, addend: 0x0, symName: __ZNSt3__117__compressed_pairIPN6Halide4ExprENS_9allocatorIS2_EEEC1B7v160006IDnNS_18__default_init_tagEEEOT_OT0_, symObjAddr: 0x90B4, symBinAddr: 0x100009D94, symSize: 0x3C }
  - { offsetInCU: 0x570E8, offset: 0x570E8, size: 0x8, addend: 0x0, symName: __ZNSt3__16vectorIN6Halide4ExprENS_9allocatorIS2_EEE16__destroy_vectorC1ERS5_, symObjAddr: 0x9130, symBinAddr: 0x100009E10, symSize: 0x34 }
  - { offsetInCU: 0x57121, offset: 0x57121, size: 0x8, addend: 0x0, symName: __ZNKSt16initializer_listIN6Halide4ExprEE4sizeB7v160006Ev, symObjAddr: 0x9174, symBinAddr: 0x100009E54, symSize: 0x18 }
  - { offsetInCU: 0x57147, offset: 0x57147, size: 0x8, addend: 0x0, symName: __ZNSt3__16vectorIN6Halide4ExprENS_9allocatorIS2_EEE11__vallocateB7v160006Em, symObjAddr: 0x918C, symBinAddr: 0x100009E6C, symSize: 0xAC }
  - { offsetInCU: 0x5718B, offset: 0x5718B, size: 0x8, addend: 0x0, symName: __ZNSt3__16vectorIN6Halide4ExprENS_9allocatorIS2_EEE18__construct_at_endIPKS2_Li0EEEvT_S9_m, symObjAddr: 0x9238, symBinAddr: 0x100009F18, symSize: 0x8C }
  - { offsetInCU: 0x571FE, offset: 0x571FE, size: 0x8, addend: 0x0, symName: __ZNKSt16initializer_listIN6Halide4ExprEE5beginB7v160006Ev, symObjAddr: 0x92C4, symBinAddr: 0x100009FA4, symSize: 0x18 }
  - { offsetInCU: 0x57224, offset: 0x57224, size: 0x8, addend: 0x0, symName: __ZNKSt16initializer_listIN6Halide4ExprEE3endB7v160006Ev, symObjAddr: 0x92DC, symBinAddr: 0x100009FBC, symSize: 0x20 }
  - { offsetInCU: 0x5724A, offset: 0x5724A, size: 0x8, addend: 0x0, symName: __ZNSt3__128__exception_guard_exceptionsINS_6vectorIN6Halide4ExprENS_9allocatorIS3_EEE16__destroy_vectorEE10__completeB7v160006Ev, symObjAddr: 0x92FC, symBinAddr: 0x100009FDC, symSize: 0x1C }
  - { offsetInCU: 0x57270, offset: 0x57270, size: 0x8, addend: 0x0, symName: __ZNSt3__128__exception_guard_exceptionsINS_6vectorIN6Halide4ExprENS_9allocatorIS3_EEE16__destroy_vectorEED1B7v160006Ev, symObjAddr: 0x9318, symBinAddr: 0x100009FF8, symSize: 0x2C }
  - { offsetInCU: 0x5729A, offset: 0x5729A, size: 0x8, addend: 0x0, symName: __ZNSt3__117__compressed_pairIPN6Halide4ExprENS_9allocatorIS2_EEEC2B7v160006IDnNS_18__default_init_tagEEEOT_OT0_, symObjAddr: 0x9344, symBinAddr: 0x10000A024, symSize: 0x40 }
  - { offsetInCU: 0x572F2, offset: 0x572F2, size: 0x8, addend: 0x0, symName: __ZNSt3__122__compressed_pair_elemIPN6Halide4ExprELi0ELb0EEC2B7v160006IDnvEEOT_, symObjAddr: 0x9384, symBinAddr: 0x10000A064, symSize: 0x1C }
  - { offsetInCU: 0x57334, offset: 0x57334, size: 0x8, addend: 0x0, symName: __ZNSt3__122__compressed_pair_elemINS_9allocatorIN6Halide4ExprEEELi1ELb1EEC2B7v160006ENS_18__default_init_tagE, symObjAddr: 0x93A0, symBinAddr: 0x10000A080, symSize: 0x2C }
  - { offsetInCU: 0x57369, offset: 0x57369, size: 0x8, addend: 0x0, symName: __ZNSt3__19allocatorIN6Halide4ExprEEC2B7v160006Ev, symObjAddr: 0x93CC, symBinAddr: 0x10000A0AC, symSize: 0x2C }
  - { offsetInCU: 0x57393, offset: 0x57393, size: 0x8, addend: 0x0, symName: __ZNSt3__116__non_trivial_ifILb1ENS_9allocatorIN6Halide4ExprEEEEC2B7v160006Ev, symObjAddr: 0x93F8, symBinAddr: 0x10000A0D8, symSize: 0x14 }
  - { offsetInCU: 0x573BD, offset: 0x573BD, size: 0x8, addend: 0x0, symName: __ZNSt3__128__exception_guard_exceptionsINS_6vectorIN6Halide4ExprENS_9allocatorIS3_EEE16__destroy_vectorEEC1B7v160006ES7_, symObjAddr: 0x940C, symBinAddr: 0x10000A0EC, symSize: 0x34 }
  - { offsetInCU: 0x573F5, offset: 0x573F5, size: 0x8, addend: 0x0, symName: __ZNSt3__128__exception_guard_exceptionsINS_6vectorIN6Halide4ExprENS_9allocatorIS3_EEE16__destroy_vectorEEC2B7v160006ES7_, symObjAddr: 0x9440, symBinAddr: 0x10000A120, symSize: 0x24 }
  - { offsetInCU: 0x5742D, offset: 0x5742D, size: 0x8, addend: 0x0, symName: __ZNSt3__16vectorIN6Halide4ExprENS_9allocatorIS2_EEE16__destroy_vectorC2ERS5_, symObjAddr: 0x9464, symBinAddr: 0x10000A144, symSize: 0x20 }
  - { offsetInCU: 0x57466, offset: 0x57466, size: 0x8, addend: 0x0, symName: __ZNKSt3__16vectorIN6Halide4ExprENS_9allocatorIS2_EEE8max_sizeEv, symObjAddr: 0x9484, symBinAddr: 0x10000A164, symSize: 0x60 }
  - { offsetInCU: 0x5748E, offset: 0x5748E, size: 0x8, addend: 0x0, symName: __ZNKSt3__16vectorIN6Halide4ExprENS_9allocatorIS2_EEE20__throw_length_errorB7v160006Ev, symObjAddr: 0x94E4, symBinAddr: 0x10000A1C4, symSize: 0x1C }
  - { offsetInCU: 0x574B4, offset: 0x574B4, size: 0x8, addend: 0x0, symName: __ZNSt3__16vectorIN6Halide4ExprENS_9allocatorIS2_EEE7__allocB7v160006Ev, symObjAddr: 0x9540, symBinAddr: 0x10000A220, symSize: 0x28 }
  - { offsetInCU: 0x574DA, offset: 0x574DA, size: 0x8, addend: 0x0, symName: __ZNSt3__16vectorIN6Halide4ExprENS_9allocatorIS2_EEE9__end_capB7v160006Ev, symObjAddr: 0x9568, symBinAddr: 0x10000A248, symSize: 0x28 }
  - { offsetInCU: 0x57500, offset: 0x57500, size: 0x8, addend: 0x0, symName: __ZNKSt3__16vectorIN6Halide4ExprENS_9allocatorIS2_EEE14__annotate_newB7v160006Em, symObjAddr: 0x9590, symBinAddr: 0x10000A270, symSize: 0xAC }
  - { offsetInCU: 0x57540, offset: 0x57540, size: 0x8, addend: 0x0, symName: __ZNSt3__116allocator_traitsINS_9allocatorIN6Halide4ExprEEEE8max_sizeB7v160006IS4_vEEmRKS4_, symObjAddr: 0x963C, symBinAddr: 0x10000A31C, symSize: 0x24 }
  - { offsetInCU: 0x5756E, offset: 0x5756E, size: 0x8, addend: 0x0, symName: __ZNKSt3__16vectorIN6Halide4ExprENS_9allocatorIS2_EEE7__allocB7v160006Ev, symObjAddr: 0x9660, symBinAddr: 0x10000A340, symSize: 0x28 }
  - { offsetInCU: 0x57594, offset: 0x57594, size: 0x8, addend: 0x0, symName: __ZNKSt3__19allocatorIN6Halide4ExprEE8max_sizeB7v160006Ev, symObjAddr: 0x9688, symBinAddr: 0x10000A368, symSize: 0x14 }
  - { offsetInCU: 0x575BA, offset: 0x575BA, size: 0x8, addend: 0x0, symName: __ZNKSt3__117__compressed_pairIPN6Halide4ExprENS_9allocatorIS2_EEE6secondB7v160006Ev, symObjAddr: 0x969C, symBinAddr: 0x10000A37C, symSize: 0x24 }
  - { offsetInCU: 0x575E0, offset: 0x575E0, size: 0x8, addend: 0x0, symName: __ZNKSt3__122__compressed_pair_elemINS_9allocatorIN6Halide4ExprEEELi1ELb1EE5__getB7v160006Ev, symObjAddr: 0x96C0, symBinAddr: 0x10000A3A0, symSize: 0x14 }
  - { offsetInCU: 0x57606, offset: 0x57606, size: 0x8, addend: 0x0, symName: __ZNSt3__19allocatorIN6Halide4ExprEE8allocateB7v160006Em, symObjAddr: 0x96D4, symBinAddr: 0x10000A3B4, symSize: 0x58 }
  - { offsetInCU: 0x5763A, offset: 0x5763A, size: 0x8, addend: 0x0, symName: __ZNSt3__117__compressed_pairIPN6Halide4ExprENS_9allocatorIS2_EEE6secondB7v160006Ev, symObjAddr: 0x972C, symBinAddr: 0x10000A40C, symSize: 0x24 }
  - { offsetInCU: 0x57660, offset: 0x57660, size: 0x8, addend: 0x0, symName: __ZNSt3__122__compressed_pair_elemINS_9allocatorIN6Halide4ExprEEELi1ELb1EE5__getB7v160006Ev, symObjAddr: 0x9750, symBinAddr: 0x10000A430, symSize: 0x14 }
  - { offsetInCU: 0x57686, offset: 0x57686, size: 0x8, addend: 0x0, symName: __ZNSt3__117__compressed_pairIPN6Halide4ExprENS_9allocatorIS2_EEE5firstB7v160006Ev, symObjAddr: 0x9764, symBinAddr: 0x10000A444, symSize: 0x24 }
  - { offsetInCU: 0x576AC, offset: 0x576AC, size: 0x8, addend: 0x0, symName: __ZNSt3__122__compressed_pair_elemIPN6Halide4ExprELi0ELb0EE5__getB7v160006Ev, symObjAddr: 0x9788, symBinAddr: 0x10000A468, symSize: 0x14 }
  - { offsetInCU: 0x576D2, offset: 0x576D2, size: 0x8, addend: 0x0, symName: __ZNKSt3__16vectorIN6Halide4ExprENS_9allocatorIS2_EEE31__annotate_contiguous_containerB7v160006EPKvS7_S7_S7_, symObjAddr: 0x979C, symBinAddr: 0x10000A47C, symSize: 0x20 }
  - { offsetInCU: 0x57728, offset: 0x57728, size: 0x8, addend: 0x0, symName: __ZNKSt3__16vectorIN6Halide4ExprENS_9allocatorIS2_EEE4dataB7v160006Ev, symObjAddr: 0x97BC, symBinAddr: 0x10000A49C, symSize: 0x28 }
  - { offsetInCU: 0x5774E, offset: 0x5774E, size: 0x8, addend: 0x0, symName: __ZNKSt3__16vectorIN6Halide4ExprENS_9allocatorIS2_EEE8capacityB7v160006Ev, symObjAddr: 0x97E4, symBinAddr: 0x10000A4C4, symSize: 0x40 }
  - { offsetInCU: 0x57774, offset: 0x57774, size: 0x8, addend: 0x0, symName: __ZNKSt3__16vectorIN6Halide4ExprENS_9allocatorIS2_EEE9__end_capB7v160006Ev, symObjAddr: 0x9838, symBinAddr: 0x10000A518, symSize: 0x28 }
  - { offsetInCU: 0x5779A, offset: 0x5779A, size: 0x8, addend: 0x0, symName: __ZNKSt3__117__compressed_pairIPN6Halide4ExprENS_9allocatorIS2_EEE5firstB7v160006Ev, symObjAddr: 0x9860, symBinAddr: 0x10000A540, symSize: 0x24 }
  - { offsetInCU: 0x577C0, offset: 0x577C0, size: 0x8, addend: 0x0, symName: __ZNKSt3__122__compressed_pair_elemIPN6Halide4ExprELi0ELb0EE5__getB7v160006Ev, symObjAddr: 0x9884, symBinAddr: 0x10000A564, symSize: 0x14 }
  - { offsetInCU: 0x57801, offset: 0x57801, size: 0x8, addend: 0x0, symName: __ZNSt3__16vectorIN6Halide4ExprENS_9allocatorIS2_EEE21_ConstructTransactionC1B7v160006ERS5_m, symObjAddr: 0x9898, symBinAddr: 0x10000A578, symSize: 0x3C }
  - { offsetInCU: 0x57849, offset: 0x57849, size: 0x8, addend: 0x0, symName: __ZNSt3__16vectorIN6Halide4ExprENS_9allocatorIS2_EEE21_ConstructTransactionD1B7v160006Ev, symObjAddr: 0x99C8, symBinAddr: 0x10000A6A8, symSize: 0x2C }
  - { offsetInCU: 0x57873, offset: 0x57873, size: 0x8, addend: 0x0, symName: __ZNSt3__16vectorIN6Halide4ExprENS_9allocatorIS2_EEE21_ConstructTransactionC2B7v160006ERS5_m, symObjAddr: 0x99F4, symBinAddr: 0x10000A6D4, symSize: 0x44 }
  - { offsetInCU: 0x578BB, offset: 0x578BB, size: 0x8, addend: 0x0, symName: __ZNSt3__129_AllocatorDestroyRangeReverseINS_9allocatorIN6Halide4ExprEEEPS3_EC1B7v160006ERS4_RS5_S8_, symObjAddr: 0x9A84, symBinAddr: 0x10000A764, symSize: 0x44 }
  - { offsetInCU: 0x57912, offset: 0x57912, size: 0x8, addend: 0x0, symName: __ZNSt3__116allocator_traitsINS_9allocatorIN6Halide4ExprEEEE9constructB7v160006IS3_JRKS3_EvEEvRS4_PT_DpOT0_, symObjAddr: 0x9AC8, symBinAddr: 0x10000A7A8, symSize: 0x34 }
  - { offsetInCU: 0x57969, offset: 0x57969, size: 0x8, addend: 0x0, symName: __ZNSt3__128__exception_guard_exceptionsINS_29_AllocatorDestroyRangeReverseINS_9allocatorIN6Halide4ExprEEEPS4_EEE10__completeB7v160006Ev, symObjAddr: 0x9AFC, symBinAddr: 0x10000A7DC, symSize: 0x1C }
  - { offsetInCU: 0x5798F, offset: 0x5798F, size: 0x8, addend: 0x0, symName: __ZNSt3__128__exception_guard_exceptionsINS_29_AllocatorDestroyRangeReverseINS_9allocatorIN6Halide4ExprEEEPS4_EEED1B7v160006Ev, symObjAddr: 0x9B18, symBinAddr: 0x10000A7F8, symSize: 0x2C }
  - { offsetInCU: 0x579B9, offset: 0x579B9, size: 0x8, addend: 0x0, symName: __ZNSt3__128__exception_guard_exceptionsINS_29_AllocatorDestroyRangeReverseINS_9allocatorIN6Halide4ExprEEEPS4_EEEC1B7v160006ES7_, symObjAddr: 0x9B44, symBinAddr: 0x10000A824, symSize: 0x34 }
  - { offsetInCU: 0x579F2, offset: 0x579F2, size: 0x8, addend: 0x0, symName: __ZNSt3__128__exception_guard_exceptionsINS_29_AllocatorDestroyRangeReverseINS_9allocatorIN6Halide4ExprEEEPS4_EEEC2B7v160006ES7_, symObjAddr: 0x9B78, symBinAddr: 0x10000A858, symSize: 0x30 }
  - { offsetInCU: 0x57A2B, offset: 0x57A2B, size: 0x8, addend: 0x0, symName: __ZNSt3__129_AllocatorDestroyRangeReverseINS_9allocatorIN6Halide4ExprEEEPS3_EC2B7v160006ERS4_RS5_S8_, symObjAddr: 0x9BA8, symBinAddr: 0x10000A888, symSize: 0x38 }
  - { offsetInCU: 0x57A82, offset: 0x57A82, size: 0x8, addend: 0x0, symName: __ZNSt3__19allocatorIN6Halide4ExprEE9constructB7v160006IS2_JRKS2_EEEvPT_DpOT0_, symObjAddr: 0x9BE0, symBinAddr: 0x10000A8C0, symSize: 0x30 }
  - { offsetInCU: 0x57AD8, offset: 0x57AD8, size: 0x8, addend: 0x0, symName: __ZNSt3__128__exception_guard_exceptionsINS_29_AllocatorDestroyRangeReverseINS_9allocatorIN6Halide4ExprEEEPS4_EEED2B7v160006Ev, symObjAddr: 0x9C10, symBinAddr: 0x10000A8F0, symSize: 0x50 }
  - { offsetInCU: 0x57B02, offset: 0x57B02, size: 0x8, addend: 0x0, symName: __ZNKSt3__129_AllocatorDestroyRangeReverseINS_9allocatorIN6Halide4ExprEEEPS3_EclB7v160006Ev, symObjAddr: 0x9C60, symBinAddr: 0x10000A940, symSize: 0x68 }
  - { offsetInCU: 0x57B28, offset: 0x57B28, size: 0x8, addend: 0x0, symName: __ZNSt3__116reverse_iteratorIPN6Halide4ExprEEC1B7v160006ES3_, symObjAddr: 0x9D38, symBinAddr: 0x10000AA18, symSize: 0x34 }
  - { offsetInCU: 0x57B60, offset: 0x57B60, size: 0x8, addend: 0x0, symName: __ZNSt3__116allocator_traitsINS_9allocatorIN6Halide4ExprEEEE7destroyB7v160006IS3_vEEvRS4_PT_, symObjAddr: 0x9DB4, symBinAddr: 0x10000AA94, symSize: 0x2C }
  - { offsetInCU: 0x57B9D, offset: 0x57B9D, size: 0x8, addend: 0x0, symName: __ZNSt3__116reverse_iteratorIPN6Halide4ExprEEppB7v160006Ev, symObjAddr: 0x9E04, symBinAddr: 0x10000AAE4, symSize: 0x20 }
  - { offsetInCU: 0x57BC3, offset: 0x57BC3, size: 0x8, addend: 0x0, symName: __ZNKSt3__116reverse_iteratorIPN6Halide4ExprEE4baseB7v160006Ev, symObjAddr: 0x9E24, symBinAddr: 0x10000AB04, symSize: 0x18 }
  - { offsetInCU: 0x57BE9, offset: 0x57BE9, size: 0x8, addend: 0x0, symName: __ZNSt3__19allocatorIN6Halide4ExprEE7destroyB7v160006EPS2_, symObjAddr: 0x9E3C, symBinAddr: 0x10000AB1C, symSize: 0x28 }
  - { offsetInCU: 0x57C23, offset: 0x57C23, size: 0x8, addend: 0x0, symName: __ZNSt3__119__to_address_helperINS_16reverse_iteratorIPN6Halide4ExprEEEvE6__callB7v160006ERKS5_, symObjAddr: 0x9E64, symBinAddr: 0x10000AB44, symSize: 0x38 }
  - { offsetInCU: 0x57C46, offset: 0x57C46, size: 0x8, addend: 0x0, symName: __ZNKSt3__116reverse_iteratorIPN6Halide4ExprEEptB7v160006Ev, symObjAddr: 0x9E9C, symBinAddr: 0x10000AB7C, symSize: 0x24 }
  - { offsetInCU: 0x57C6C, offset: 0x57C6C, size: 0x8, addend: 0x0, symName: __ZNKSt3__116reverse_iteratorIPN6Halide4ExprEEdeB7v160006Ev, symObjAddr: 0x9EC0, symBinAddr: 0x10000ABA0, symSize: 0x28 }
  - { offsetInCU: 0x57CA1, offset: 0x57CA1, size: 0x8, addend: 0x0, symName: __ZNSt3__116reverse_iteratorIPN6Halide4ExprEEC2B7v160006ES3_, symObjAddr: 0x9EE8, symBinAddr: 0x10000ABC8, symSize: 0x28 }
  - { offsetInCU: 0x57CD9, offset: 0x57CD9, size: 0x8, addend: 0x0, symName: __ZNSt3__16vectorIN6Halide4ExprENS_9allocatorIS2_EEE21_ConstructTransactionD2B7v160006Ev, symObjAddr: 0x9F10, symBinAddr: 0x10000ABF0, symSize: 0x20 }
  - { offsetInCU: 0x57D03, offset: 0x57D03, size: 0x8, addend: 0x0, symName: __ZNSt3__128__exception_guard_exceptionsINS_6vectorIN6Halide4ExprENS_9allocatorIS3_EEE16__destroy_vectorEED2B7v160006Ev, symObjAddr: 0x9F30, symBinAddr: 0x10000AC10, symSize: 0x50 }
  - { offsetInCU: 0x57D2D, offset: 0x57D2D, size: 0x8, addend: 0x0, symName: __ZNSt3__16vectorIN6Halide4ExprENS_9allocatorIS2_EEE16__destroy_vectorclB7v160006Ev, symObjAddr: 0x9F80, symBinAddr: 0x10000AC60, symSize: 0x9C }
  - { offsetInCU: 0x57D53, offset: 0x57D53, size: 0x8, addend: 0x0, symName: __ZNKSt3__16vectorIN6Halide4ExprENS_9allocatorIS2_EEE17__annotate_deleteB7v160006Ev, symObjAddr: 0xA01C, symBinAddr: 0x10000ACFC, symSize: 0xB8 }
  - { offsetInCU: 0x57D79, offset: 0x57D79, size: 0x8, addend: 0x0, symName: __ZNSt3__16vectorIN6Halide4ExprENS_9allocatorIS2_EEE7__clearB7v160006Ev, symObjAddr: 0xA0E4, symBinAddr: 0x10000ADC4, symSize: 0x28 }
  - { offsetInCU: 0x57D9F, offset: 0x57D9F, size: 0x8, addend: 0x0, symName: __ZNSt3__116allocator_traitsINS_9allocatorIN6Halide4ExprEEEE10deallocateB7v160006ERS4_PS3_m, symObjAddr: 0xA10C, symBinAddr: 0x10000ADEC, symSize: 0x34 }
  - { offsetInCU: 0x57DE1, offset: 0x57DE1, size: 0x8, addend: 0x0, symName: __ZNKSt3__16vectorIN6Halide4ExprENS_9allocatorIS2_EEE4sizeB7v160006Ev, symObjAddr: 0xA140, symBinAddr: 0x10000AE20, symSize: 0x28 }
  - { offsetInCU: 0x57E07, offset: 0x57E07, size: 0x8, addend: 0x0, symName: __ZNSt3__16vectorIN6Halide4ExprENS_9allocatorIS2_EEE22__base_destruct_at_endB7v160006EPS2_, symObjAddr: 0xA168, symBinAddr: 0x10000AE48, symSize: 0x8C }
  - { offsetInCU: 0x57E4B, offset: 0x57E4B, size: 0x8, addend: 0x0, symName: __ZNSt3__19allocatorIN6Halide4ExprEE10deallocateB7v160006EPS2_m, symObjAddr: 0xA1F4, symBinAddr: 0x10000AED4, symSize: 0x40 }
  - { offsetInCU: 0x57E8D, offset: 0x57E8D, size: 0x8, addend: 0x0, symName: __ZNSt3__16vectorIN6Halide4ExprENS_9allocatorIS2_EEEC2ERKS5_, symObjAddr: 0xA234, symBinAddr: 0x10000AF14, symSize: 0x110 }
  - { offsetInCU: 0x57EED, offset: 0x57EED, size: 0x8, addend: 0x0, symName: __ZNSt3__116allocator_traitsINS_9allocatorIN6Halide4ExprEEEE37select_on_container_copy_constructionB7v160006IS4_vvEES4_RKS4_, symObjAddr: 0xA344, symBinAddr: 0x10000B024, symSize: 0x10 }
  - { offsetInCU: 0x57F22, offset: 0x57F22, size: 0x8, addend: 0x0, symName: __ZNSt3__117__compressed_pairIPN6Halide4ExprENS_9allocatorIS2_EEEC1B7v160006IDnS5_EEOT_OT0_, symObjAddr: 0xA354, symBinAddr: 0x10000B034, symSize: 0x3C }
  - { offsetInCU: 0x57F7A, offset: 0x57F7A, size: 0x8, addend: 0x0, symName: __ZNSt3__16vectorIN6Halide4ExprENS_9allocatorIS2_EEE18__construct_at_endIPS2_Li0EEEvT_S8_m, symObjAddr: 0xA390, symBinAddr: 0x10000B070, symSize: 0x8C }
  - { offsetInCU: 0x57FED, offset: 0x57FED, size: 0x8, addend: 0x0, symName: __ZNSt3__117__compressed_pairIPN6Halide4ExprENS_9allocatorIS2_EEEC2B7v160006IDnS5_EEOT_OT0_, symObjAddr: 0xA41C, symBinAddr: 0x10000B0FC, symSize: 0x44 }
  - { offsetInCU: 0x58045, offset: 0x58045, size: 0x8, addend: 0x0, symName: __ZNSt3__122__compressed_pair_elemINS_9allocatorIN6Halide4ExprEEELi1ELb1EEC2B7v160006IS4_vEEOT_, symObjAddr: 0xA460, symBinAddr: 0x10000B140, symSize: 0x18 }
  - { offsetInCU: 0x58087, offset: 0x58087, size: 0x8, addend: 0x0, symName: __ZNSt3__116allocator_traitsINS_9allocatorIN6Halide4ExprEEEE9constructB7v160006IS3_JRS3_EvEEvRS4_PT_DpOT0_, symObjAddr: 0xA56C, symBinAddr: 0x10000B24C, symSize: 0x34 }
  - { offsetInCU: 0x580DE, offset: 0x580DE, size: 0x8, addend: 0x0, symName: __ZNSt3__19allocatorIN6Halide4ExprEE9constructB7v160006IS2_JRS2_EEEvPT_DpOT0_, symObjAddr: 0xA5A0, symBinAddr: 0x10000B280, symSize: 0x30 }
  - { offsetInCU: 0x58134, offset: 0x58134, size: 0x8, addend: 0x0, symName: __ZNSt3__16vectorIN6Halide4ExprENS_9allocatorIS2_EEED2B7v160006Ev, symObjAddr: 0xA5D0, symBinAddr: 0x10000B2B0, symSize: 0x44 }
  - { offsetInCU: 0x5815E, offset: 0x5815E, size: 0x8, addend: 0x0, symName: __ZN6Halide4ExprC2ERKS0_, symObjAddr: 0xA614, symBinAddr: 0x10000B2F4, symSize: 0x34 }
  - { offsetInCU: 0x581C1, offset: 0x581C1, size: 0x8, addend: 0x0, symName: __ZN6Halide8Internal8IRHandleC2ERKS1_, symObjAddr: 0xA648, symBinAddr: 0x10000B328, symSize: 0x58 }
  - { offsetInCU: 0x5821D, offset: 0x5821D, size: 0x8, addend: 0x0, symName: __ZN6Halide8Internal12IntrusivePtrIKNS0_6IRNodeEE6increfEPS3_, symObjAddr: 0xA6A0, symBinAddr: 0x10000B380, symSize: 0x44 }
  - { offsetInCU: 0x58252, offset: 0x58252, size: 0x8, addend: 0x0, symName: __ZN6Halide4ExprC1Ef, symObjAddr: 0xA828, symBinAddr: 0x10000B508, symSize: 0x34 }
  - { offsetInCU: 0x582DE, offset: 0x582DE, size: 0x8, addend: 0x0, symName: __ZN6Halide4ExprC2Ef, symObjAddr: 0xA85C, symBinAddr: 0x10000B53C, symSize: 0x84 }
  - { offsetInCU: 0x58363, offset: 0x58363, size: 0x8, addend: 0x0, symName: __ZN6Halide4TypeC1E18halide_type_code_tiiPK28halide_handle_cplusplus_type, symObjAddr: 0xA920, symBinAddr: 0x10000B600, symSize: 0x4C }
  - { offsetInCU: 0x583C9, offset: 0x583C9, size: 0x8, addend: 0x0, symName: __ZN6Halide4TypeC2E18halide_type_code_tiiPK28halide_handle_cplusplus_type, symObjAddr: 0xA96C, symBinAddr: 0x10000B64C, symSize: 0x88 }
  - { offsetInCU: 0x5849B, offset: 0x5849B, size: 0x8, addend: 0x0, symName: __ZN6Halide4ExprC2Ei, symObjAddr: 0xA9F4, symBinAddr: 0x10000B6D4, symSize: 0x80 }
  - { offsetInCU: 0x58520, offset: 0x58520, size: 0x8, addend: 0x0, symName: __ZNK6Halide8Internal7GIOBase10get_valuesINS_4FuncEEERKNSt3__16vectorIT_NS4_9allocatorIS6_EEEEv, symObjAddr: 0xAAB4, symBinAddr: 0x10000B794, symSize: 0x24 }
  - { offsetInCU: 0x5854F, offset: 0x5854F, size: 0x8, addend: 0x0, symName: __ZN6Halide5StageD2Ev, symObjAddr: 0xAAD8, symBinAddr: 0x10000B7B8, symSize: 0x44 }
  - { offsetInCU: 0x5857C, offset: 0x5857C, size: 0x8, addend: 0x0, symName: __ZN6Halide8Internal10DefinitionD1Ev, symObjAddr: 0xAB1C, symBinAddr: 0x10000B7FC, symSize: 0x2C }
  - { offsetInCU: 0x585A9, offset: 0x585A9, size: 0x8, addend: 0x0, symName: __ZN6Halide8Internal8FunctionD1Ev, symObjAddr: 0xAB48, symBinAddr: 0x10000B828, symSize: 0x2C }
  - { offsetInCU: 0x585D6, offset: 0x585D6, size: 0x8, addend: 0x0, symName: __ZN6Halide8Internal10DefinitionD2Ev, symObjAddr: 0xAB74, symBinAddr: 0x10000B854, symSize: 0x2C }
  - { offsetInCU: 0x58603, offset: 0x58603, size: 0x8, addend: 0x0, symName: __ZN6Halide8Internal12IntrusivePtrINS0_18DefinitionContentsEED1Ev, symObjAddr: 0xABA0, symBinAddr: 0x10000B880, symSize: 0x2C }
  - { offsetInCU: 0x5862D, offset: 0x5862D, size: 0x8, addend: 0x0, symName: __ZN6Halide8Internal12IntrusivePtrINS0_18DefinitionContentsEED2Ev, symObjAddr: 0xABCC, symBinAddr: 0x10000B8AC, symSize: 0x38 }
  - { offsetInCU: 0x58657, offset: 0x58657, size: 0x8, addend: 0x0, symName: __ZN6Halide8Internal12IntrusivePtrINS0_18DefinitionContentsEE6decrefEPS2_, symObjAddr: 0xAC04, symBinAddr: 0x10000B8E4, symSize: 0x60 }
  - { offsetInCU: 0x5868C, offset: 0x5868C, size: 0x8, addend: 0x0, symName: __ZN6Halide8Internal8FunctionD2Ev, symObjAddr: 0xAC64, symBinAddr: 0x10000B944, symSize: 0x2C }
  - { offsetInCU: 0x586B9, offset: 0x586B9, size: 0x8, addend: 0x0, symName: __ZN6Halide8Internal11FunctionPtrD1Ev, symObjAddr: 0xAC90, symBinAddr: 0x10000B970, symSize: 0x2C }
  - { offsetInCU: 0x586E6, offset: 0x586E6, size: 0x8, addend: 0x0, symName: __ZN6Halide8Internal11FunctionPtrD2Ev, symObjAddr: 0xACBC, symBinAddr: 0x10000B99C, symSize: 0x2C }
  - { offsetInCU: 0x58713, offset: 0x58713, size: 0x8, addend: 0x0, symName: __ZN6Halide8Internal12IntrusivePtrINS0_13FunctionGroupEED1Ev, symObjAddr: 0xACE8, symBinAddr: 0x10000B9C8, symSize: 0x2C }
  - { offsetInCU: 0x5873D, offset: 0x5873D, size: 0x8, addend: 0x0, symName: __ZN6Halide8Internal12IntrusivePtrINS0_13FunctionGroupEED2Ev, symObjAddr: 0xAD14, symBinAddr: 0x10000B9F4, symSize: 0x38 }
  - { offsetInCU: 0x58767, offset: 0x58767, size: 0x8, addend: 0x0, symName: __ZN6Halide8Internal12IntrusivePtrINS0_13FunctionGroupEE6decrefEPS2_, symObjAddr: 0xAD4C, symBinAddr: 0x10000BA2C, symSize: 0x60 }
  - { offsetInCU: 0x5879C, offset: 0x5879C, size: 0x8, addend: 0x0, symName: __ZN6Halide7FuncRefD2Ev, symObjAddr: 0xADAC, symBinAddr: 0x10000BA8C, symSize: 0x38 }
  - { offsetInCU: 0x5880D, offset: 0x5880D, size: 0x8, addend: 0x0, symName: __ZNK6Halide8Internal19GeneratorOutputBase2asINS_4FuncELPv0EEET_v, symObjAddr: 0xADE4, symBinAddr: 0x10000BAC4, symSize: 0x3B4 }
  - { offsetInCU: 0x58959, offset: 0x58959, size: 0x8, addend: 0x0, symName: __ZNKSt3__16vectorIN6Halide4ExprENS_9allocatorIS2_EEE5emptyB7v160006Ev, symObjAddr: 0xB198, symBinAddr: 0x10000BE78, symSize: 0x28 }
  - { offsetInCU: 0x5897F, offset: 0x5897F, size: 0x8, addend: 0x0, symName: __ZNKSt3__16vectorIN6Halide4FuncENS_9allocatorIS2_EEE5emptyB7v160006Ev, symObjAddr: 0xB1C0, symBinAddr: 0x10000BEA0, symSize: 0x28 }
  - { offsetInCU: 0x589BE, offset: 0x589BE, size: 0x8, addend: 0x0, symName: __ZN6Halide8Internal11ErrorReportlsIA26_cEERS1_RKT_, symObjAddr: 0xB1E8, symBinAddr: 0x10000BEC8, symSize: 0x34 }
  - { offsetInCU: 0x58A15, offset: 0x58A15, size: 0x8, addend: 0x0, symName: __ZN6Halide8Internal11ErrorReportlsIA52_cEERS1_RKT_, symObjAddr: 0xB21C, symBinAddr: 0x10000BEFC, symSize: 0x34 }
  - { offsetInCU: 0x58A53, offset: 0x58A53, size: 0x8, addend: 0x0, symName: __ZNKSt3__16vectorIN6Halide4FuncENS_9allocatorIS2_EEEixB7v160006Em, symObjAddr: 0xB250, symBinAddr: 0x10000BF30, symSize: 0x24 }
  - { offsetInCU: 0x58A8A, offset: 0x58A8A, size: 0x8, addend: 0x0, symName: __ZN6Halide4FuncD2Ev, symObjAddr: 0xB274, symBinAddr: 0x10000BF54, symSize: 0x38 }
  - { offsetInCU: 0x58AB7, offset: 0x58AB7, size: 0x8, addend: 0x0, symName: __ZN6Halide8PipelineD1Ev, symObjAddr: 0xB2AC, symBinAddr: 0x10000BF8C, symSize: 0x2C }
  - { offsetInCU: 0x58AE4, offset: 0x58AE4, size: 0x8, addend: 0x0, symName: __ZN6Halide8PipelineD2Ev, symObjAddr: 0xB2D8, symBinAddr: 0x10000BFB8, symSize: 0x2C }
  - { offsetInCU: 0x58B11, offset: 0x58B11, size: 0x8, addend: 0x0, symName: __ZN6Halide8Internal12IntrusivePtrINS_16PipelineContentsEED1Ev, symObjAddr: 0xB304, symBinAddr: 0x10000BFE4, symSize: 0x2C }
  - { offsetInCU: 0x58B3B, offset: 0x58B3B, size: 0x8, addend: 0x0, symName: __ZN6Halide8Internal12IntrusivePtrINS_16PipelineContentsEED2Ev, symObjAddr: 0xB330, symBinAddr: 0x10000C010, symSize: 0x38 }
  - { offsetInCU: 0x58B65, offset: 0x58B65, size: 0x8, addend: 0x0, symName: __ZN6Halide8Internal12IntrusivePtrINS_16PipelineContentsEE6decrefEPS2_, symObjAddr: 0xB368, symBinAddr: 0x10000C048, symSize: 0x60 }
  - { offsetInCU: 0x58B9A, offset: 0x58B9A, size: 0x8, addend: 0x0, symName: __ZN6Halide3VarD2Ev, symObjAddr: 0xB3C8, symBinAddr: 0x10000C0A8, symSize: 0x2C }
  - { offsetInCU: 0x58BC7, offset: 0x58BC7, size: 0x8, addend: 0x0, symName: __ZN6Halide9GeneratorIN12_GLOBAL__N_112YuvToRgba888EE19call_configure_implEv, symObjAddr: 0xB3F4, symBinAddr: 0x10000C0D4, symSize: 0x30 }
  - { offsetInCU: 0x58BED, offset: 0x58BED, size: 0x8, addend: 0x0, symName: __ZNSt3__110unique_ptrIN12_GLOBAL__N_112YuvToRgba888ENS_14default_deleteIS2_EEEC2B7v160006ILb1EvEEPS2_, symObjAddr: 0xB424, symBinAddr: 0x10000C104, symSize: 0x44 }
  - { offsetInCU: 0x58C36, offset: 0x58C36, size: 0x8, addend: 0x0, symName: __ZNSt3__117__compressed_pairIPN12_GLOBAL__N_112YuvToRgba888ENS_14default_deleteIS2_EEEC1B7v160006IRS3_NS_16__value_init_tagEEEOT_OT0_, symObjAddr: 0xB468, symBinAddr: 0x10000C148, symSize: 0x3C }
  - { offsetInCU: 0x58C8E, offset: 0x58C8E, size: 0x8, addend: 0x0, symName: __ZNSt3__117__compressed_pairIPN12_GLOBAL__N_112YuvToRgba888ENS_14default_deleteIS2_EEEC2B7v160006IRS3_NS_16__value_init_tagEEEOT_OT0_, symObjAddr: 0xB4A4, symBinAddr: 0x10000C184, symSize: 0x40 }
  - { offsetInCU: 0x58CE6, offset: 0x58CE6, size: 0x8, addend: 0x0, symName: __ZNSt3__122__compressed_pair_elemIPN12_GLOBAL__N_112YuvToRgba888ELi0ELb0EEC2B7v160006IRS3_vEEOT_, symObjAddr: 0xB4E4, symBinAddr: 0x10000C1C4, symSize: 0x24 }
  - { offsetInCU: 0x58D28, offset: 0x58D28, size: 0x8, addend: 0x0, symName: __ZNSt3__122__compressed_pair_elemINS_14default_deleteIN12_GLOBAL__N_112YuvToRgba888EEELi1ELb1EEC2B7v160006ENS_16__value_init_tagE, symObjAddr: 0xB508, symBinAddr: 0x10000C1E8, symSize: 0x14 }
  - { offsetInCU: 0x58D5D, offset: 0x58D5D, size: 0x8, addend: 0x0, symName: __ZNKSt3__117__compressed_pairIPN12_GLOBAL__N_112YuvToRgba888ENS_14default_deleteIS2_EEE5firstB7v160006Ev, symObjAddr: 0xB51C, symBinAddr: 0x10000C1FC, symSize: 0x24 }
  - { offsetInCU: 0x58D83, offset: 0x58D83, size: 0x8, addend: 0x0, symName: __ZNKSt3__122__compressed_pair_elemIPN12_GLOBAL__N_112YuvToRgba888ELi0ELb0EE5__getB7v160006Ev, symObjAddr: 0xB540, symBinAddr: 0x10000C220, symSize: 0x14 }
  - { offsetInCU: 0x58DA9, offset: 0x58DA9, size: 0x8, addend: 0x0, symName: __ZNSt3__110unique_ptrIN12_GLOBAL__N_112YuvToRgba888ENS_14default_deleteIS2_EEED2B7v160006Ev, symObjAddr: 0xB554, symBinAddr: 0x10000C234, symSize: 0x30 }
  - { offsetInCU: 0x58DD3, offset: 0x58DD3, size: 0x8, addend: 0x0, symName: __ZNSt3__110unique_ptrIN12_GLOBAL__N_112YuvToRgba888ENS_14default_deleteIS2_EEE5resetB7v160006EPS2_, symObjAddr: 0xB584, symBinAddr: 0x10000C264, symSize: 0x78 }
  - { offsetInCU: 0x58E17, offset: 0x58E17, size: 0x8, addend: 0x0, symName: __ZNSt3__117__compressed_pairIPN12_GLOBAL__N_112YuvToRgba888ENS_14default_deleteIS2_EEE5firstB7v160006Ev, symObjAddr: 0xB5FC, symBinAddr: 0x10000C2DC, symSize: 0x24 }
  - { offsetInCU: 0x58E3D, offset: 0x58E3D, size: 0x8, addend: 0x0, symName: __ZNSt3__117__compressed_pairIPN12_GLOBAL__N_112YuvToRgba888ENS_14default_deleteIS2_EEE6secondB7v160006Ev, symObjAddr: 0xB620, symBinAddr: 0x10000C300, symSize: 0x24 }
  - { offsetInCU: 0x58E63, offset: 0x58E63, size: 0x8, addend: 0x0, symName: __ZNKSt3__114default_deleteIN12_GLOBAL__N_112YuvToRgba888EEclB7v160006EPS2_, symObjAddr: 0xB644, symBinAddr: 0x10000C324, symSize: 0x4C }
  - { offsetInCU: 0x58E97, offset: 0x58E97, size: 0x8, addend: 0x0, symName: __ZNSt3__122__compressed_pair_elemIPN12_GLOBAL__N_112YuvToRgba888ELi0ELb0EE5__getB7v160006Ev, symObjAddr: 0xB690, symBinAddr: 0x10000C370, symSize: 0x14 }
  - { offsetInCU: 0x58EBD, offset: 0x58EBD, size: 0x8, addend: 0x0, symName: __ZNSt3__122__compressed_pair_elemINS_14default_deleteIN12_GLOBAL__N_112YuvToRgba888EEELi1ELb1EE5__getB7v160006Ev, symObjAddr: 0xB6A4, symBinAddr: 0x10000C384, symSize: 0x14 }
  - { offsetInCU: 0x58EE3, offset: 0x58EE3, size: 0x8, addend: 0x0, symName: __ZNSt3__110unique_ptrIN6Halide8Internal17AbstractGeneratorENS_14default_deleteIS3_EEEC2B7v160006IN12_GLOBAL__N_112YuvToRgba888ENS4_IS9_EEvvEEONS0_IT_T0_EE, symObjAddr: 0xB6B8, symBinAddr: 0x10000C398, symSize: 0x60 }
  - { offsetInCU: 0x58F2F, offset: 0x58F2F, size: 0x8, addend: 0x0, symName: __ZNSt3__110unique_ptrIN12_GLOBAL__N_112YuvToRgba888ENS_14default_deleteIS2_EEE7releaseB7v160006Ev, symObjAddr: 0xB718, symBinAddr: 0x10000C3F8, symSize: 0x44 }
  - { offsetInCU: 0x58F64, offset: 0x58F64, size: 0x8, addend: 0x0, symName: __ZNSt3__110unique_ptrIN12_GLOBAL__N_112YuvToRgba888ENS_14default_deleteIS2_EEE11get_deleterB7v160006Ev, symObjAddr: 0xB75C, symBinAddr: 0x10000C43C, symSize: 0x24 }
  - { offsetInCU: 0x58F96, offset: 0x58F96, size: 0x8, addend: 0x0, symName: __ZNSt3__117__compressed_pairIPN6Halide8Internal17AbstractGeneratorENS_14default_deleteIS3_EEEC1B7v160006IPN12_GLOBAL__N_112YuvToRgba888ENS5_ISA_EEEEOT_OT0_, symObjAddr: 0xB780, symBinAddr: 0x10000C460, symSize: 0x3C }
  - { offsetInCU: 0x58FEE, offset: 0x58FEE, size: 0x8, addend: 0x0, symName: __ZNSt3__117__compressed_pairIPN6Halide8Internal17AbstractGeneratorENS_14default_deleteIS3_EEEC2B7v160006IPN12_GLOBAL__N_112YuvToRgba888ENS5_ISA_EEEEOT_OT0_, symObjAddr: 0xB7BC, symBinAddr: 0x10000C49C, symSize: 0x44 }
  - { offsetInCU: 0x59046, offset: 0x59046, size: 0x8, addend: 0x0, symName: __ZNSt3__122__compressed_pair_elemIPN6Halide8Internal17AbstractGeneratorELi0ELb0EEC2B7v160006IPN12_GLOBAL__N_112YuvToRgba888EvEEOT_, symObjAddr: 0xB800, symBinAddr: 0x10000C4E0, symSize: 0x24 }
  - { offsetInCU: 0x59088, offset: 0x59088, size: 0x8, addend: 0x0, symName: __ZNSt3__122__compressed_pair_elemINS_14default_deleteIN6Halide8Internal17AbstractGeneratorEEELi1ELb1EEC2B7v160006INS1_IN12_GLOBAL__N_112YuvToRgba888EEEvEEOT_, symObjAddr: 0xB824, symBinAddr: 0x10000C504, symSize: 0x38 }
  - { offsetInCU: 0x590CF, offset: 0x590CF, size: 0x8, addend: 0x0, symName: __ZNSt3__114default_deleteIN6Halide8Internal17AbstractGeneratorEEC2B7v160006IN12_GLOBAL__N_112YuvToRgba888EEERKNS0_IT_EEPNS_9enable_ifIXsr14is_convertibleIPS8_PS3_EE5valueEvE4typeE, symObjAddr: 0xB85C, symBinAddr: 0x10000C53C, symSize: 0x1C }
  - { offsetInCU: 0x59118, offset: 0x59118, size: 0x8, addend: 0x0, symName: __ZNSt3__18functionIFNS_10unique_ptrIN6Halide8Internal17AbstractGeneratorENS_14default_deleteIS4_EEEERKNS2_16GeneratorContextEEEC2IPSB_vEET_, symObjAddr: 0xB878, symBinAddr: 0x10000C558, symSize: 0x38 }
  - { offsetInCU: 0x5915D, offset: 0x5915D, size: 0x8, addend: 0x0, symName: __ZNSt3__110__function12__value_funcIFNS_10unique_ptrIN6Halide8Internal17AbstractGeneratorENS_14default_deleteIS5_EEEERKNS3_16GeneratorContextEEEC1B7v160006IPSC_vEEOT_, symObjAddr: 0xB8B0, symBinAddr: 0x10000C590, symSize: 0x50 }
  - { offsetInCU: 0x591A0, offset: 0x591A0, size: 0x8, addend: 0x0, symName: __ZNSt3__19allocatorIPFNS_10unique_ptrIN6Halide8Internal17AbstractGeneratorENS_14default_deleteIS4_EEEERKNS2_16GeneratorContextEEEC1B7v160006Ev, symObjAddr: 0xB900, symBinAddr: 0x10000C5E0, symSize: 0x2C }
  - { offsetInCU: 0x591CA, offset: 0x591CA, size: 0x8, addend: 0x0, symName: __ZNSt3__110__function12__value_funcIFNS_10unique_ptrIN6Halide8Internal17AbstractGeneratorENS_14default_deleteIS5_EEEERKNS3_16GeneratorContextEEEC1B7v160006IPSC_NS_9allocatorISF_EEEEOT_RKT0_, symObjAddr: 0xB92C, symBinAddr: 0x10000C60C, symSize: 0x3C }
  - { offsetInCU: 0x59224, offset: 0x59224, size: 0x8, addend: 0x0, symName: __ZNSt3__19allocatorIPFNS_10unique_ptrIN6Halide8Internal17AbstractGeneratorENS_14default_deleteIS4_EEEERKNS2_16GeneratorContextEEEC2B7v160006Ev, symObjAddr: 0xB968, symBinAddr: 0x10000C648, symSize: 0x2C }
  - { offsetInCU: 0x5924E, offset: 0x5924E, size: 0x8, addend: 0x0, symName: __ZNSt3__116__non_trivial_ifILb1ENS_9allocatorIPFNS_10unique_ptrIN6Halide8Internal17AbstractGeneratorENS_14default_deleteIS5_EEEERKNS3_16GeneratorContextEEEEEC2B7v160006Ev, symObjAddr: 0xB994, symBinAddr: 0x10000C674, symSize: 0x14 }
  - { offsetInCU: 0x59278, offset: 0x59278, size: 0x8, addend: 0x0, symName: __ZNSt3__110__function12__value_funcIFNS_10unique_ptrIN6Halide8Internal17AbstractGeneratorENS_14default_deleteIS5_EEEERKNS3_16GeneratorContextEEEC2B7v160006IPSC_NS_9allocatorISF_EEEEOT_RKT0_, symObjAddr: 0xB9A8, symBinAddr: 0x10000C688, symSize: 0x98 }
  - { offsetInCU: 0x59321, offset: 0x59321, size: 0x8, addend: 0x0, symName: __ZNSt3__19allocatorINS_10__function6__funcIPFNS_10unique_ptrIN6Halide8Internal17AbstractGeneratorENS_14default_deleteIS6_EEEERKNS4_16GeneratorContextEENS0_ISE_EESD_EEEC1B7v160006ISE_EERKNS0_IT_EE, symObjAddr: 0xBA60, symBinAddr: 0x10000C740, symSize: 0x34 }
  - { offsetInCU: 0x59365, offset: 0x59365, size: 0x8, addend: 0x0, symName: __ZNSt3__19allocatorIPFNS_10unique_ptrIN6Halide8Internal17AbstractGeneratorENS_14default_deleteIS4_EEEERKNS2_16GeneratorContextEEEC1B7v160006INS_10__function6__funcISC_SD_SB_EEEERKNS0_IT_EE, symObjAddr: 0xBA94, symBinAddr: 0x10000C774, symSize: 0x34 }
  - { offsetInCU: 0x593A3, offset: 0x593A3, size: 0x8, addend: 0x0, symName: __ZNSt3__110__function6__funcIPFNS_10unique_ptrIN6Halide8Internal17AbstractGeneratorENS_14default_deleteIS5_EEEERKNS3_16GeneratorContextEENS_9allocatorISD_EESC_EC1B7v160006EOSD_OSF_, symObjAddr: 0xBAC8, symBinAddr: 0x10000C7A8, symSize: 0x3C }
  - { offsetInCU: 0x593EB, offset: 0x593EB, size: 0x8, addend: 0x0, symName: __ZNSt3__19allocatorINS_10__function6__funcIPFNS_10unique_ptrIN6Halide8Internal17AbstractGeneratorENS_14default_deleteIS6_EEEERKNS4_16GeneratorContextEENS0_ISE_EESD_EEEC2B7v160006ISE_EERKNS0_IT_EE, symObjAddr: 0xBB04, symBinAddr: 0x10000C7E4, symSize: 0x30 }
  - { offsetInCU: 0x59429, offset: 0x59429, size: 0x8, addend: 0x0, symName: __ZNSt3__116__non_trivial_ifILb1ENS_9allocatorINS_10__function6__funcIPFNS_10unique_ptrIN6Halide8Internal17AbstractGeneratorENS_14default_deleteIS7_EEEERKNS5_16GeneratorContextEENS1_ISF_EESE_EEEEEC2B7v160006Ev, symObjAddr: 0xBB34, symBinAddr: 0x10000C814, symSize: 0x14 }
  - { offsetInCU: 0x59453, offset: 0x59453, size: 0x8, addend: 0x0, symName: __ZNSt3__19allocatorIPFNS_10unique_ptrIN6Halide8Internal17AbstractGeneratorENS_14default_deleteIS4_EEEERKNS2_16GeneratorContextEEEC2B7v160006INS_10__function6__funcISC_SD_SB_EEEERKNS0_IT_EE, symObjAddr: 0xBB48, symBinAddr: 0x10000C828, symSize: 0x30 }
  - { offsetInCU: 0x59491, offset: 0x59491, size: 0x8, addend: 0x0, symName: __ZNSt3__110__function6__funcIPFNS_10unique_ptrIN6Halide8Internal17AbstractGeneratorENS_14default_deleteIS5_EEEERKNS3_16GeneratorContextEENS_9allocatorISD_EESC_EC2B7v160006EOSD_OSF_, symObjAddr: 0xBB78, symBinAddr: 0x10000C858, symSize: 0x88 }
  - { offsetInCU: 0x594D9, offset: 0x594D9, size: 0x8, addend: 0x0, symName: __ZNSt3__110__function6__baseIFNS_10unique_ptrIN6Halide8Internal17AbstractGeneratorENS_14default_deleteIS5_EEEERKNS3_16GeneratorContextEEEC2B7v160006Ev, symObjAddr: 0xBC00, symBinAddr: 0x10000C8E0, symSize: 0x24 }
  - { offsetInCU: 0x59503, offset: 0x59503, size: 0x8, addend: 0x0, symName: __ZNSt3__110__function12__alloc_funcIPFNS_10unique_ptrIN6Halide8Internal17AbstractGeneratorENS_14default_deleteIS5_EEEERKNS3_16GeneratorContextEENS_9allocatorISD_EESC_EC1B7v160006EOSD_OSF_, symObjAddr: 0xBC24, symBinAddr: 0x10000C904, symSize: 0x3C }
  - { offsetInCU: 0x59549, offset: 0x59549, size: 0x8, addend: 0x0, symName: __ZNSt3__110__function6__baseIFNS_10unique_ptrIN6Halide8Internal17AbstractGeneratorENS_14default_deleteIS5_EEEERKNS3_16GeneratorContextEEED2Ev, symObjAddr: 0xBC60, symBinAddr: 0x10000C940, symSize: 0x14 }
  - { offsetInCU: 0x59573, offset: 0x59573, size: 0x8, addend: 0x0, symName: __ZNSt3__110__function6__funcIPFNS_10unique_ptrIN6Halide8Internal17AbstractGeneratorENS_14default_deleteIS5_EEEERKNS3_16GeneratorContextEENS_9allocatorISD_EESC_ED1Ev, symObjAddr: 0xBC74, symBinAddr: 0x10000C954, symSize: 0x2C }
  - { offsetInCU: 0x595A0, offset: 0x595A0, size: 0x8, addend: 0x0, symName: __ZNSt3__110__function6__funcIPFNS_10unique_ptrIN6Halide8Internal17AbstractGeneratorENS_14default_deleteIS5_EEEERKNS3_16GeneratorContextEENS_9allocatorISD_EESC_ED0Ev, symObjAddr: 0xBCA0, symBinAddr: 0x10000C980, symSize: 0x30 }
  - { offsetInCU: 0x595CD, offset: 0x595CD, size: 0x8, addend: 0x0, symName: __ZNKSt3__110__function6__funcIPFNS_10unique_ptrIN6Halide8Internal17AbstractGeneratorENS_14default_deleteIS5_EEEERKNS3_16GeneratorContextEENS_9allocatorISD_EESC_E7__cloneEv, symObjAddr: 0xBCD0, symBinAddr: 0x10000C9B0, symSize: 0xFC }
  - { offsetInCU: 0x5961F, offset: 0x5961F, size: 0x8, addend: 0x0, symName: __ZNKSt3__110__function6__funcIPFNS_10unique_ptrIN6Halide8Internal17AbstractGeneratorENS_14default_deleteIS5_EEEERKNS3_16GeneratorContextEENS_9allocatorISD_EESC_E7__cloneEPNS0_6__baseISC_EE, symObjAddr: 0xBDCC, symBinAddr: 0x10000CAAC, symSize: 0x58 }
  - { offsetInCU: 0x59656, offset: 0x59656, size: 0x8, addend: 0x0, symName: __ZNSt3__110__function6__funcIPFNS_10unique_ptrIN6Halide8Internal17AbstractGeneratorENS_14default_deleteIS5_EEEERKNS3_16GeneratorContextEENS_9allocatorISD_EESC_E7destroyEv, symObjAddr: 0xBE24, symBinAddr: 0x10000CB04, symSize: 0x28 }
  - { offsetInCU: 0x5967E, offset: 0x5967E, size: 0x8, addend: 0x0, symName: __ZNSt3__110__function6__funcIPFNS_10unique_ptrIN6Halide8Internal17AbstractGeneratorENS_14default_deleteIS5_EEEERKNS3_16GeneratorContextEENS_9allocatorISD_EESC_E18destroy_deallocateEv, symObjAddr: 0xBE4C, symBinAddr: 0x10000CB2C, symSize: 0x58 }
  - { offsetInCU: 0x596C1, offset: 0x596C1, size: 0x8, addend: 0x0, symName: __ZNSt3__110__function6__funcIPFNS_10unique_ptrIN6Halide8Internal17AbstractGeneratorENS_14default_deleteIS5_EEEERKNS3_16GeneratorContextEENS_9allocatorISD_EESC_EclESB_, symObjAddr: 0xBEA4, symBinAddr: 0x10000CB84, symSize: 0x38 }
  - { offsetInCU: 0x596F8, offset: 0x596F8, size: 0x8, addend: 0x0, symName: __ZNKSt3__110__function6__funcIPFNS_10unique_ptrIN6Halide8Internal17AbstractGeneratorENS_14default_deleteIS5_EEEERKNS3_16GeneratorContextEENS_9allocatorISD_EESC_E6targetERKSt9type_info, symObjAddr: 0xBEDC, symBinAddr: 0x10000CBBC, symSize: 0x60 }
  - { offsetInCU: 0x5972F, offset: 0x5972F, size: 0x8, addend: 0x0, symName: __ZNKSt3__110__function6__funcIPFNS_10unique_ptrIN6Halide8Internal17AbstractGeneratorENS_14default_deleteIS5_EEEERKNS3_16GeneratorContextEENS_9allocatorISD_EESC_E11target_typeEv, symObjAddr: 0xBF3C, symBinAddr: 0x10000CC1C, symSize: 0x18 }
  - { offsetInCU: 0x59757, offset: 0x59757, size: 0x8, addend: 0x0, symName: __ZNSt3__110__function6__baseIFNS_10unique_ptrIN6Halide8Internal17AbstractGeneratorENS_14default_deleteIS5_EEEERKNS3_16GeneratorContextEEED1Ev, symObjAddr: 0xBF54, symBinAddr: 0x10000CC34, symSize: 0x14 }
  - { offsetInCU: 0x59781, offset: 0x59781, size: 0x8, addend: 0x0, symName: __ZNSt3__110__function6__baseIFNS_10unique_ptrIN6Halide8Internal17AbstractGeneratorENS_14default_deleteIS5_EEEERKNS3_16GeneratorContextEEED0Ev, symObjAddr: 0xBF68, symBinAddr: 0x10000CC48, symSize: 0xC }
  - { offsetInCU: 0x597AB, offset: 0x597AB, size: 0x8, addend: 0x0, symName: __ZNSt3__110__function12__alloc_funcIPFNS_10unique_ptrIN6Halide8Internal17AbstractGeneratorENS_14default_deleteIS5_EEEERKNS3_16GeneratorContextEENS_9allocatorISD_EESC_EC2B7v160006EOSD_OSF_, symObjAddr: 0xBF74, symBinAddr: 0x10000CC54, symSize: 0x5C }
  - { offsetInCU: 0x597F1, offset: 0x597F1, size: 0x8, addend: 0x0, symName: __ZNSt3__117__compressed_pairIPFNS_10unique_ptrIN6Halide8Internal17AbstractGeneratorENS_14default_deleteIS4_EEEERKNS2_16GeneratorContextEENS_9allocatorISC_EEEC1B7v160006IJOSC_EJOSE_EEENS_21piecewise_construct_tENS_5tupleIJDpT_EEENSK_IJDpT0_EEE, symObjAddr: 0xC028, symBinAddr: 0x10000CD08, symSize: 0x3C }
  - { offsetInCU: 0x5985B, offset: 0x5985B, size: 0x8, addend: 0x0, symName: __ZNSt3__15tupleIJOPFNS_10unique_ptrIN6Halide8Internal17AbstractGeneratorENS_14default_deleteIS4_EEEERKNS2_16GeneratorContextEEEEC1B7v160006IJSC_ELi0EEEDpOT_, symObjAddr: 0xC064, symBinAddr: 0x10000CD44, symSize: 0x34 }
  - { offsetInCU: 0x598A5, offset: 0x598A5, size: 0x8, addend: 0x0, symName: __ZNSt3__15tupleIJOPFNS_10unique_ptrIN6Halide8Internal17AbstractGeneratorENS_14default_deleteIS4_EEEERKNS2_16GeneratorContextEEEEC2B7v160006IJSC_ELi0EEEDpOT_, symObjAddr: 0xC098, symBinAddr: 0x10000CD78, symSize: 0x34 }
  - { offsetInCU: 0x598EF, offset: 0x598EF, size: 0x8, addend: 0x0, symName: __ZNSt3__112__tuple_implINS_15__tuple_indicesIJLm0EEEEJOPFNS_10unique_ptrIN6Halide8Internal17AbstractGeneratorENS_14default_deleteIS6_EEEERKNS4_16GeneratorContextEEEEC1B7v160006IJLm0EEJSF_EJEJEJSE_EEENS1_IJXspT_EEEENS_13__tuple_typesIJDpT0_EEENS1_IJXspT1_EEEENSJ_IJDpT2_EEEDpOT3_, symObjAddr: 0xC0CC, symBinAddr: 0x10000CDAC, symSize: 0x34 }
  - { offsetInCU: 0x59984, offset: 0x59984, size: 0x8, addend: 0x0, symName: __ZNSt3__112__tuple_implINS_15__tuple_indicesIJLm0EEEEJOPFNS_10unique_ptrIN6Halide8Internal17AbstractGeneratorENS_14default_deleteIS6_EEEERKNS4_16GeneratorContextEEEEC2B7v160006IJLm0EEJSF_EJEJEJSE_EEENS1_IJXspT_EEEENS_13__tuple_typesIJDpT0_EEENS1_IJXspT1_EEEENSJ_IJDpT2_EEEDpOT3_, symObjAddr: 0xC100, symBinAddr: 0x10000CDE0, symSize: 0x34 }
  - { offsetInCU: 0x59A19, offset: 0x59A19, size: 0x8, addend: 0x0, symName: __ZNSt3__112__tuple_leafILm0EOPFNS_10unique_ptrIN6Halide8Internal17AbstractGeneratorENS_14default_deleteIS4_EEEERKNS2_16GeneratorContextEELb0EEC2B7v160006ISC_vEEOT_, symObjAddr: 0xC134, symBinAddr: 0x10000CE14, symSize: 0x20 }
  - { offsetInCU: 0x59A5C, offset: 0x59A5C, size: 0x8, addend: 0x0, symName: __ZNSt3__15tupleIJONS_9allocatorIPFNS_10unique_ptrIN6Halide8Internal17AbstractGeneratorENS_14default_deleteIS5_EEEERKNS3_16GeneratorContextEEEEEEC1B7v160006IJSE_ELi0EEEDpOT_, symObjAddr: 0xC154, symBinAddr: 0x10000CE34, symSize: 0x34 }
  - { offsetInCU: 0x59AA6, offset: 0x59AA6, size: 0x8, addend: 0x0, symName: __ZNSt3__15tupleIJONS_9allocatorIPFNS_10unique_ptrIN6Halide8Internal17AbstractGeneratorENS_14default_deleteIS5_EEEERKNS3_16GeneratorContextEEEEEEC2B7v160006IJSE_ELi0EEEDpOT_, symObjAddr: 0xC188, symBinAddr: 0x10000CE68, symSize: 0x34 }
  - { offsetInCU: 0x59AF0, offset: 0x59AF0, size: 0x8, addend: 0x0, symName: __ZNSt3__112__tuple_implINS_15__tuple_indicesIJLm0EEEEJONS_9allocatorIPFNS_10unique_ptrIN6Halide8Internal17AbstractGeneratorENS_14default_deleteIS7_EEEERKNS5_16GeneratorContextEEEEEEC1B7v160006IJLm0EEJSH_EJEJEJSG_EEENS1_IJXspT_EEEENS_13__tuple_typesIJDpT0_EEENS1_IJXspT1_EEEENSL_IJDpT2_EEEDpOT3_, symObjAddr: 0xC1BC, symBinAddr: 0x10000CE9C, symSize: 0x34 }
  - { offsetInCU: 0x59B85, offset: 0x59B85, size: 0x8, addend: 0x0, symName: __ZNSt3__112__tuple_implINS_15__tuple_indicesIJLm0EEEEJONS_9allocatorIPFNS_10unique_ptrIN6Halide8Internal17AbstractGeneratorENS_14default_deleteIS7_EEEERKNS5_16GeneratorContextEEEEEEC2B7v160006IJLm0EEJSH_EJEJEJSG_EEENS1_IJXspT_EEEENS_13__tuple_typesIJDpT0_EEENS1_IJXspT1_EEEENSL_IJDpT2_EEEDpOT3_, symObjAddr: 0xC1F0, symBinAddr: 0x10000CED0, symSize: 0x34 }
  - { offsetInCU: 0x59C1A, offset: 0x59C1A, size: 0x8, addend: 0x0, symName: __ZNSt3__112__tuple_leafILm0EONS_9allocatorIPFNS_10unique_ptrIN6Halide8Internal17AbstractGeneratorENS_14default_deleteIS5_EEEERKNS3_16GeneratorContextEEEELb0EEC2B7v160006ISE_vEEOT_, symObjAddr: 0xC224, symBinAddr: 0x10000CF04, symSize: 0x20 }
  - { offsetInCU: 0x59C5D, offset: 0x59C5D, size: 0x8, addend: 0x0, symName: __ZNSt3__117__compressed_pairIPFNS_10unique_ptrIN6Halide8Internal17AbstractGeneratorENS_14default_deleteIS4_EEEERKNS2_16GeneratorContextEENS_9allocatorISC_EEEC2B7v160006IJOSC_EJOSE_EEENS_21piecewise_construct_tENS_5tupleIJDpT_EEENSK_IJDpT0_EEE, symObjAddr: 0xC244, symBinAddr: 0x10000CF24, symSize: 0x54 }
  - { offsetInCU: 0x59CC7, offset: 0x59CC7, size: 0x8, addend: 0x0, symName: __ZNSt3__122__compressed_pair_elemIPFNS_10unique_ptrIN6Halide8Internal17AbstractGeneratorENS_14default_deleteIS4_EEEERKNS2_16GeneratorContextEELi0ELb0EEC2B7v160006IJOSC_EJLm0EEEENS_21piecewise_construct_tENS_5tupleIJDpT_EEENS_15__tuple_indicesIJXspT0_EEEE, symObjAddr: 0xC298, symBinAddr: 0x10000CF78, symSize: 0x44 }
  - { offsetInCU: 0x59D2C, offset: 0x59D2C, size: 0x8, addend: 0x0, symName: __ZNSt3__122__compressed_pair_elemINS_9allocatorIPFNS_10unique_ptrIN6Halide8Internal17AbstractGeneratorENS_14default_deleteIS5_EEEERKNS3_16GeneratorContextEEEELi1ELb1EEC2B7v160006IJOSE_EJLm0EEEENS_21piecewise_construct_tENS_5tupleIJDpT_EEENS_15__tuple_indicesIJXspT0_EEEE, symObjAddr: 0xC2DC, symBinAddr: 0x10000CFBC, symSize: 0x38 }
  - { offsetInCU: 0x59D91, offset: 0x59D91, size: 0x8, addend: 0x0, symName: __ZNSt3__112__tuple_leafILm0EOPFNS_10unique_ptrIN6Halide8Internal17AbstractGeneratorENS_14default_deleteIS4_EEEERKNS2_16GeneratorContextEELb0EE3getB7v160006Ev, symObjAddr: 0xC338, symBinAddr: 0x10000D018, symSize: 0x18 }
  - { offsetInCU: 0x59DB7, offset: 0x59DB7, size: 0x8, addend: 0x0, symName: __ZNSt3__112__tuple_leafILm0EONS_9allocatorIPFNS_10unique_ptrIN6Halide8Internal17AbstractGeneratorENS_14default_deleteIS5_EEEERKNS3_16GeneratorContextEEEELb0EE3getB7v160006Ev, symObjAddr: 0xC374, symBinAddr: 0x10000D054, symSize: 0x18 }
  - { offsetInCU: 0x59DDD, offset: 0x59DDD, size: 0x8, addend: 0x0, symName: __ZNSt3__110__function6__funcIPFNS_10unique_ptrIN6Halide8Internal17AbstractGeneratorENS_14default_deleteIS5_EEEERKNS3_16GeneratorContextEENS_9allocatorISD_EESC_ED2Ev, symObjAddr: 0xC38C, symBinAddr: 0x10000D06C, symSize: 0x2C }
  - { offsetInCU: 0x59E0A, offset: 0x59E0A, size: 0x8, addend: 0x0, symName: __ZNKSt3__110__function12__alloc_funcIPFNS_10unique_ptrIN6Halide8Internal17AbstractGeneratorENS_14default_deleteIS5_EEEERKNS3_16GeneratorContextEENS_9allocatorISD_EESC_E15__get_allocatorB7v160006Ev, symObjAddr: 0xC3B8, symBinAddr: 0x10000D098, symSize: 0x24 }
  - { offsetInCU: 0x59E30, offset: 0x59E30, size: 0x8, addend: 0x0, symName: __ZNSt3__19allocatorINS_10__function6__funcIPFNS_10unique_ptrIN6Halide8Internal17AbstractGeneratorENS_14default_deleteIS6_EEEERKNS4_16GeneratorContextEENS0_ISE_EESD_EEE8allocateB7v160006Em, symObjAddr: 0xC3DC, symBinAddr: 0x10000D0BC, symSize: 0x58 }
  - { offsetInCU: 0x59E75, offset: 0x59E75, size: 0x8, addend: 0x0, symName: __ZNSt3__122__allocator_destructorINS_9allocatorINS_10__function6__funcIPFNS_10unique_ptrIN6Halide8Internal17AbstractGeneratorENS_14default_deleteIS7_EEEERKNS5_16GeneratorContextEENS1_ISF_EESE_EEEEEC1B7v160006ERSI_m, symObjAddr: 0xC434, symBinAddr: 0x10000D114, symSize: 0x3C }
  - { offsetInCU: 0x59F51, offset: 0x59F51, size: 0x8, addend: 0x0, symName: __ZNSt3__110unique_ptrINS_10__function6__funcIPFNS0_IN6Halide8Internal17AbstractGeneratorENS_14default_deleteIS5_EEEERKNS3_16GeneratorContextEENS_9allocatorISD_EESC_EENS_22__allocator_destructorINSE_ISG_EEEEEC1B7v160006ILb1EvEEPSG_NS_16__dependent_typeINS_27__unique_ptr_deleter_sfinaeISJ_EEXT_EE20__good_rval_ref_typeE, symObjAddr: 0xC470, symBinAddr: 0x10000D150, symSize: 0x3C }
  - { offsetInCU: 0x59FA2, offset: 0x59FA2, size: 0x8, addend: 0x0, symName: __ZNKSt3__110unique_ptrINS_10__function6__funcIPFNS0_IN6Halide8Internal17AbstractGeneratorENS_14default_deleteIS5_EEEERKNS3_16GeneratorContextEENS_9allocatorISD_EESC_EENS_22__allocator_destructorINSE_ISG_EEEEE3getB7v160006Ev, symObjAddr: 0xC4AC, symBinAddr: 0x10000D18C, symSize: 0x28 }
  - { offsetInCU: 0x59FC8, offset: 0x59FC8, size: 0x8, addend: 0x0, symName: __ZNKSt3__110__function12__alloc_funcIPFNS_10unique_ptrIN6Halide8Internal17AbstractGeneratorENS_14default_deleteIS5_EEEERKNS3_16GeneratorContextEENS_9allocatorISD_EESC_E8__targetB7v160006Ev, symObjAddr: 0xC4D4, symBinAddr: 0x10000D1B4, symSize: 0x24 }
  - { offsetInCU: 0x59FEE, offset: 0x59FEE, size: 0x8, addend: 0x0, symName: __ZNSt3__110__function6__funcIPFNS_10unique_ptrIN6Halide8Internal17AbstractGeneratorENS_14default_deleteIS5_EEEERKNS3_16GeneratorContextEENS_9allocatorISD_EESC_EC1B7v160006ERKSD_OSF_, symObjAddr: 0xC4F8, symBinAddr: 0x10000D1D8, symSize: 0x3C }
  - { offsetInCU: 0x5A036, offset: 0x5A036, size: 0x8, addend: 0x0, symName: __ZNSt3__110unique_ptrINS_10__function6__funcIPFNS0_IN6Halide8Internal17AbstractGeneratorENS_14default_deleteIS5_EEEERKNS3_16GeneratorContextEENS_9allocatorISD_EESC_EENS_22__allocator_destructorINSE_ISG_EEEEE7releaseB7v160006Ev, symObjAddr: 0xC534, symBinAddr: 0x10000D214, symSize: 0x44 }
  - { offsetInCU: 0x5A06B, offset: 0x5A06B, size: 0x8, addend: 0x0, symName: __ZNSt3__110unique_ptrINS_10__function6__funcIPFNS0_IN6Halide8Internal17AbstractGeneratorENS_14default_deleteIS5_EEEERKNS3_16GeneratorContextEENS_9allocatorISD_EESC_EENS_22__allocator_destructorINSE_ISG_EEEEED1B7v160006Ev, symObjAddr: 0xC578, symBinAddr: 0x10000D258, symSize: 0x2C }
  - { offsetInCU: 0x5A095, offset: 0x5A095, size: 0x8, addend: 0x0, symName: __ZNKSt3__117__compressed_pairIPFNS_10unique_ptrIN6Halide8Internal17AbstractGeneratorENS_14default_deleteIS4_EEEERKNS2_16GeneratorContextEENS_9allocatorISC_EEE6secondB7v160006Ev, symObjAddr: 0xC5A4, symBinAddr: 0x10000D284, symSize: 0x24 }
  - { offsetInCU: 0x5A0BB, offset: 0x5A0BB, size: 0x8, addend: 0x0, symName: __ZNKSt3__122__compressed_pair_elemINS_9allocatorIPFNS_10unique_ptrIN6Halide8Internal17AbstractGeneratorENS_14default_deleteIS5_EEEERKNS3_16GeneratorContextEEEELi1ELb1EE5__getB7v160006Ev, symObjAddr: 0xC5C8, symBinAddr: 0x10000D2A8, symSize: 0x14 }
  - { offsetInCU: 0x5A0EC, offset: 0x5A0EC, size: 0x8, addend: 0x0, symName: __ZNSt3__116allocator_traitsINS_9allocatorINS_10__function6__funcIPFNS_10unique_ptrIN6Halide8Internal17AbstractGeneratorENS_14default_deleteIS7_EEEERKNS5_16GeneratorContextEENS1_ISF_EESE_EEEEE8max_sizeB7v160006ISI_vEEmRKSI_, symObjAddr: 0xC5DC, symBinAddr: 0x10000D2BC, symSize: 0x24 }
  - { offsetInCU: 0x5A11A, offset: 0x5A11A, size: 0x8, addend: 0x0, symName: __ZNKSt3__19allocatorINS_10__function6__funcIPFNS_10unique_ptrIN6Halide8Internal17AbstractGeneratorENS_14default_deleteIS6_EEEERKNS4_16GeneratorContextEENS0_ISE_EESD_EEE8max_sizeB7v160006Ev, symObjAddr: 0xC600, symBinAddr: 0x10000D2E0, symSize: 0x14 }
  - { offsetInCU: 0x5A140, offset: 0x5A140, size: 0x8, addend: 0x0, symName: __ZNSt3__122__allocator_destructorINS_9allocatorINS_10__function6__funcIPFNS_10unique_ptrIN6Halide8Internal17AbstractGeneratorENS_14default_deleteIS7_EEEERKNS5_16GeneratorContextEENS1_ISF_EESE_EEEEEC2B7v160006ERSI_m, symObjAddr: 0xC614, symBinAddr: 0x10000D2F4, symSize: 0x2C }
  - { offsetInCU: 0x5A186, offset: 0x5A186, size: 0x8, addend: 0x0, symName: __ZNSt3__110unique_ptrINS_10__function6__funcIPFNS0_IN6Halide8Internal17AbstractGeneratorENS_14default_deleteIS5_EEEERKNS3_16GeneratorContextEENS_9allocatorISD_EESC_EENS_22__allocator_destructorINSE_ISG_EEEEEC2B7v160006ILb1EvEEPSG_NS_16__dependent_typeINS_27__unique_ptr_deleter_sfinaeISJ_EEXT_EE20__good_rval_ref_typeE, symObjAddr: 0xC640, symBinAddr: 0x10000D320, symSize: 0x48 }
  - { offsetInCU: 0x5A1D7, offset: 0x5A1D7, size: 0x8, addend: 0x0, symName: __ZNSt3__117__compressed_pairIPNS_10__function6__funcIPFNS_10unique_ptrIN6Halide8Internal17AbstractGeneratorENS_14default_deleteIS6_EEEERKNS4_16GeneratorContextEENS_9allocatorISE_EESD_EENS_22__allocator_destructorINSF_ISH_EEEEEC1B7v160006IRSI_SL_EEOT_OT0_, symObjAddr: 0xC688, symBinAddr: 0x10000D368, symSize: 0x3C }
  - { offsetInCU: 0x5A22F, offset: 0x5A22F, size: 0x8, addend: 0x0, symName: __ZNSt3__117__compressed_pairIPNS_10__function6__funcIPFNS_10unique_ptrIN6Halide8Internal17AbstractGeneratorENS_14default_deleteIS6_EEEERKNS4_16GeneratorContextEENS_9allocatorISE_EESD_EENS_22__allocator_destructorINSF_ISH_EEEEEC2B7v160006IRSI_SL_EEOT_OT0_, symObjAddr: 0xC6C4, symBinAddr: 0x10000D3A4, symSize: 0x48 }
  - { offsetInCU: 0x5A287, offset: 0x5A287, size: 0x8, addend: 0x0, symName: __ZNSt3__122__compressed_pair_elemIPNS_10__function6__funcIPFNS_10unique_ptrIN6Halide8Internal17AbstractGeneratorENS_14default_deleteIS6_EEEERKNS4_16GeneratorContextEENS_9allocatorISE_EESD_EELi0ELb0EEC2B7v160006IRSI_vEEOT_, symObjAddr: 0xC70C, symBinAddr: 0x10000D3EC, symSize: 0x24 }
  - { offsetInCU: 0x5A2C9, offset: 0x5A2C9, size: 0x8, addend: 0x0, symName: __ZNSt3__122__compressed_pair_elemINS_22__allocator_destructorINS_9allocatorINS_10__function6__funcIPFNS_10unique_ptrIN6Halide8Internal17AbstractGeneratorENS_14default_deleteIS8_EEEERKNS6_16GeneratorContextEENS2_ISG_EESF_EEEEEELi1ELb0EEC2B7v160006ISK_vEEOT_, symObjAddr: 0xC730, symBinAddr: 0x10000D410, symSize: 0x24 }
  - { offsetInCU: 0x5A30B, offset: 0x5A30B, size: 0x8, addend: 0x0, symName: __ZNKSt3__117__compressed_pairIPNS_10__function6__funcIPFNS_10unique_ptrIN6Halide8Internal17AbstractGeneratorENS_14default_deleteIS6_EEEERKNS4_16GeneratorContextEENS_9allocatorISE_EESD_EENS_22__allocator_destructorINSF_ISH_EEEEE5firstB7v160006Ev, symObjAddr: 0xC754, symBinAddr: 0x10000D434, symSize: 0x24 }
  - { offsetInCU: 0x5A331, offset: 0x5A331, size: 0x8, addend: 0x0, symName: __ZNKSt3__122__compressed_pair_elemIPNS_10__function6__funcIPFNS_10unique_ptrIN6Halide8Internal17AbstractGeneratorENS_14default_deleteIS6_EEEERKNS4_16GeneratorContextEENS_9allocatorISE_EESD_EELi0ELb0EE5__getB7v160006Ev, symObjAddr: 0xC778, symBinAddr: 0x10000D458, symSize: 0x14 }
  - { offsetInCU: 0x5A357, offset: 0x5A357, size: 0x8, addend: 0x0, symName: __ZNKSt3__117__compressed_pairIPFNS_10unique_ptrIN6Halide8Internal17AbstractGeneratorENS_14default_deleteIS4_EEEERKNS2_16GeneratorContextEENS_9allocatorISC_EEE5firstB7v160006Ev, symObjAddr: 0xC78C, symBinAddr: 0x10000D46C, symSize: 0x24 }
  - { offsetInCU: 0x5A37D, offset: 0x5A37D, size: 0x8, addend: 0x0, symName: __ZNKSt3__122__compressed_pair_elemIPFNS_10unique_ptrIN6Halide8Internal17AbstractGeneratorENS_14default_deleteIS4_EEEERKNS2_16GeneratorContextEELi0ELb0EE5__getB7v160006Ev, symObjAddr: 0xC7B0, symBinAddr: 0x10000D490, symSize: 0x14 }
  - { offsetInCU: 0x5A3A3, offset: 0x5A3A3, size: 0x8, addend: 0x0, symName: __ZNSt3__110__function6__funcIPFNS_10unique_ptrIN6Halide8Internal17AbstractGeneratorENS_14default_deleteIS5_EEEERKNS3_16GeneratorContextEENS_9allocatorISD_EESC_EC2B7v160006ERKSD_OSF_, symObjAddr: 0xC7C4, symBinAddr: 0x10000D4A4, symSize: 0x88 }
  - { offsetInCU: 0x5A3EB, offset: 0x5A3EB, size: 0x8, addend: 0x0, symName: __ZNSt3__110__function12__alloc_funcIPFNS_10unique_ptrIN6Halide8Internal17AbstractGeneratorENS_14default_deleteIS5_EEEERKNS3_16GeneratorContextEENS_9allocatorISD_EESC_EC1B7v160006ERKSD_OSF_, symObjAddr: 0xC84C, symBinAddr: 0x10000D52C, symSize: 0x3C }
  - { offsetInCU: 0x5A431, offset: 0x5A431, size: 0x8, addend: 0x0, symName: __ZNSt3__110__function12__alloc_funcIPFNS_10unique_ptrIN6Halide8Internal17AbstractGeneratorENS_14default_deleteIS5_EEEERKNS3_16GeneratorContextEENS_9allocatorISD_EESC_EC2B7v160006ERKSD_OSF_, symObjAddr: 0xC888, symBinAddr: 0x10000D568, symSize: 0x5C }
  - { offsetInCU: 0x5A477, offset: 0x5A477, size: 0x8, addend: 0x0, symName: __ZNSt3__117__compressed_pairIPFNS_10unique_ptrIN6Halide8Internal17AbstractGeneratorENS_14default_deleteIS4_EEEERKNS2_16GeneratorContextEENS_9allocatorISC_EEEC1B7v160006IJRKSC_EJOSE_EEENS_21piecewise_construct_tENS_5tupleIJDpT_EEENSL_IJDpT0_EEE, symObjAddr: 0xC910, symBinAddr: 0x10000D5F0, symSize: 0x3C }
  - { offsetInCU: 0x5A4E1, offset: 0x5A4E1, size: 0x8, addend: 0x0, symName: __ZNSt3__15tupleIJRKPFNS_10unique_ptrIN6Halide8Internal17AbstractGeneratorENS_14default_deleteIS4_EEEERKNS2_16GeneratorContextEEEEC1B7v160006INS_4_AndELi0EEESE_, symObjAddr: 0xC94C, symBinAddr: 0x10000D62C, symSize: 0x34 }
  - { offsetInCU: 0x5A529, offset: 0x5A529, size: 0x8, addend: 0x0, symName: __ZNSt3__15tupleIJRKPFNS_10unique_ptrIN6Halide8Internal17AbstractGeneratorENS_14default_deleteIS4_EEEERKNS2_16GeneratorContextEEEEC2B7v160006INS_4_AndELi0EEESE_, symObjAddr: 0xC980, symBinAddr: 0x10000D660, symSize: 0x34 }
  - { offsetInCU: 0x5A571, offset: 0x5A571, size: 0x8, addend: 0x0, symName: __ZNSt3__112__tuple_implINS_15__tuple_indicesIJLm0EEEEJRKPFNS_10unique_ptrIN6Halide8Internal17AbstractGeneratorENS_14default_deleteIS6_EEEERKNS4_16GeneratorContextEEEEC1B7v160006IJLm0EEJSG_EJEJEJSG_EEENS1_IJXspT_EEEENS_13__tuple_typesIJDpT0_EEENS1_IJXspT1_EEEENSK_IJDpT2_EEEDpOT3_, symObjAddr: 0xC9B4, symBinAddr: 0x10000D694, symSize: 0x34 }
  - { offsetInCU: 0x5A606, offset: 0x5A606, size: 0x8, addend: 0x0, symName: __ZNSt3__112__tuple_implINS_15__tuple_indicesIJLm0EEEEJRKPFNS_10unique_ptrIN6Halide8Internal17AbstractGeneratorENS_14default_deleteIS6_EEEERKNS4_16GeneratorContextEEEEC2B7v160006IJLm0EEJSG_EJEJEJSG_EEENS1_IJXspT_EEEENS_13__tuple_typesIJDpT0_EEENS1_IJXspT1_EEEENSK_IJDpT2_EEEDpOT3_, symObjAddr: 0xC9E8, symBinAddr: 0x10000D6C8, symSize: 0x34 }
  - { offsetInCU: 0x5A69B, offset: 0x5A69B, size: 0x8, addend: 0x0, symName: __ZNSt3__112__tuple_leafILm0ERKPFNS_10unique_ptrIN6Halide8Internal17AbstractGeneratorENS_14default_deleteIS4_EEEERKNS2_16GeneratorContextEELb0EEC2B7v160006ISE_vEEOT_, symObjAddr: 0xCA1C, symBinAddr: 0x10000D6FC, symSize: 0x20 }
  - { offsetInCU: 0x5A6DE, offset: 0x5A6DE, size: 0x8, addend: 0x0, symName: __ZNSt3__117__compressed_pairIPFNS_10unique_ptrIN6Halide8Internal17AbstractGeneratorENS_14default_deleteIS4_EEEERKNS2_16GeneratorContextEENS_9allocatorISC_EEEC2B7v160006IJRKSC_EJOSE_EEENS_21piecewise_construct_tENS_5tupleIJDpT_EEENSL_IJDpT0_EEE, symObjAddr: 0xCA3C, symBinAddr: 0x10000D71C, symSize: 0x54 }
  - { offsetInCU: 0x5A748, offset: 0x5A748, size: 0x8, addend: 0x0, symName: __ZNSt3__122__compressed_pair_elemIPFNS_10unique_ptrIN6Halide8Internal17AbstractGeneratorENS_14default_deleteIS4_EEEERKNS2_16GeneratorContextEELi0ELb0EEC2B7v160006IJRKSC_EJLm0EEEENS_21piecewise_construct_tENS_5tupleIJDpT_EEENS_15__tuple_indicesIJXspT0_EEEE, symObjAddr: 0xCA90, symBinAddr: 0x10000D770, symSize: 0x44 }
  - { offsetInCU: 0x5A7AD, offset: 0x5A7AD, size: 0x8, addend: 0x0, symName: __ZNSt3__112__tuple_leafILm0ERKPFNS_10unique_ptrIN6Halide8Internal17AbstractGeneratorENS_14default_deleteIS4_EEEERKNS2_16GeneratorContextEELb0EE3getB7v160006Ev, symObjAddr: 0xCAF8, symBinAddr: 0x10000D7D8, symSize: 0x18 }
  - { offsetInCU: 0x5A7D3, offset: 0x5A7D3, size: 0x8, addend: 0x0, symName: __ZNSt3__117__compressed_pairIPNS_10__function6__funcIPFNS_10unique_ptrIN6Halide8Internal17AbstractGeneratorENS_14default_deleteIS6_EEEERKNS4_16GeneratorContextEENS_9allocatorISE_EESD_EENS_22__allocator_destructorINSF_ISH_EEEEE5firstB7v160006Ev, symObjAddr: 0xCB10, symBinAddr: 0x10000D7F0, symSize: 0x24 }
  - { offsetInCU: 0x5A7F9, offset: 0x5A7F9, size: 0x8, addend: 0x0, symName: __ZNSt3__122__compressed_pair_elemIPNS_10__function6__funcIPFNS_10unique_ptrIN6Halide8Internal17AbstractGeneratorENS_14default_deleteIS6_EEEERKNS4_16GeneratorContextEENS_9allocatorISE_EESD_EELi0ELb0EE5__getB7v160006Ev, symObjAddr: 0xCB34, symBinAddr: 0x10000D814, symSize: 0x14 }
  - { offsetInCU: 0x5A81F, offset: 0x5A81F, size: 0x8, addend: 0x0, symName: __ZNSt3__110unique_ptrINS_10__function6__funcIPFNS0_IN6Halide8Internal17AbstractGeneratorENS_14default_deleteIS5_EEEERKNS3_16GeneratorContextEENS_9allocatorISD_EESC_EENS_22__allocator_destructorINSE_ISG_EEEEED2B7v160006Ev, symObjAddr: 0xCB48, symBinAddr: 0x10000D828, symSize: 0x30 }
  - { offsetInCU: 0x5A849, offset: 0x5A849, size: 0x8, addend: 0x0, symName: __ZNSt3__110unique_ptrINS_10__function6__funcIPFNS0_IN6Halide8Internal17AbstractGeneratorENS_14default_deleteIS5_EEEERKNS3_16GeneratorContextEENS_9allocatorISD_EESC_EENS_22__allocator_destructorINSE_ISG_EEEEE5resetB7v160006EPSG_, symObjAddr: 0xCB78, symBinAddr: 0x10000D858, symSize: 0x78 }
  - { offsetInCU: 0x5A88D, offset: 0x5A88D, size: 0x8, addend: 0x0, symName: __ZNSt3__117__compressed_pairIPNS_10__function6__funcIPFNS_10unique_ptrIN6Halide8Internal17AbstractGeneratorENS_14default_deleteIS6_EEEERKNS4_16GeneratorContextEENS_9allocatorISE_EESD_EENS_22__allocator_destructorINSF_ISH_EEEEE6secondB7v160006Ev, symObjAddr: 0xCBF0, symBinAddr: 0x10000D8D0, symSize: 0x28 }
  - { offsetInCU: 0x5A8B3, offset: 0x5A8B3, size: 0x8, addend: 0x0, symName: __ZNSt3__122__allocator_destructorINS_9allocatorINS_10__function6__funcIPFNS_10unique_ptrIN6Halide8Internal17AbstractGeneratorENS_14default_deleteIS7_EEEERKNS5_16GeneratorContextEENS1_ISF_EESE_EEEEEclB7v160006EPSH_, symObjAddr: 0xCC18, symBinAddr: 0x10000D8F8, symSize: 0x34 }
  - { offsetInCU: 0x5A8E7, offset: 0x5A8E7, size: 0x8, addend: 0x0, symName: __ZNSt3__122__compressed_pair_elemINS_22__allocator_destructorINS_9allocatorINS_10__function6__funcIPFNS_10unique_ptrIN6Halide8Internal17AbstractGeneratorENS_14default_deleteIS8_EEEERKNS6_16GeneratorContextEENS2_ISG_EESF_EEEEEELi1ELb0EE5__getB7v160006Ev, symObjAddr: 0xCC4C, symBinAddr: 0x10000D92C, symSize: 0x14 }
  - { offsetInCU: 0x5A90D, offset: 0x5A90D, size: 0x8, addend: 0x0, symName: __ZNSt3__116allocator_traitsINS_9allocatorINS_10__function6__funcIPFNS_10unique_ptrIN6Halide8Internal17AbstractGeneratorENS_14default_deleteIS7_EEEERKNS5_16GeneratorContextEENS1_ISF_EESE_EEEEE10deallocateB7v160006ERSI_PSH_m, symObjAddr: 0xCC60, symBinAddr: 0x10000D940, symSize: 0x34 }
  - { offsetInCU: 0x5A94F, offset: 0x5A94F, size: 0x8, addend: 0x0, symName: __ZNSt3__19allocatorINS_10__function6__funcIPFNS_10unique_ptrIN6Halide8Internal17AbstractGeneratorENS_14default_deleteIS6_EEEERKNS4_16GeneratorContextEENS0_ISE_EESD_EEE10deallocateB7v160006EPSG_m, symObjAddr: 0xCC94, symBinAddr: 0x10000D974, symSize: 0x40 }
  - { offsetInCU: 0x5A991, offset: 0x5A991, size: 0x8, addend: 0x0, symName: __ZNSt3__110__function6__funcIPFNS_10unique_ptrIN6Halide8Internal17AbstractGeneratorENS_14default_deleteIS5_EEEERKNS3_16GeneratorContextEENS_9allocatorISD_EESC_EC1B7v160006ERKSD_RKSF_, symObjAddr: 0xCCD4, symBinAddr: 0x10000D9B4, symSize: 0x3C }
  - { offsetInCU: 0x5A9D9, offset: 0x5A9D9, size: 0x8, addend: 0x0, symName: __ZNSt3__110__function6__funcIPFNS_10unique_ptrIN6Halide8Internal17AbstractGeneratorENS_14default_deleteIS5_EEEERKNS3_16GeneratorContextEENS_9allocatorISD_EESC_EC2B7v160006ERKSD_RKSF_, symObjAddr: 0xCD10, symBinAddr: 0x10000D9F0, symSize: 0x88 }
  - { offsetInCU: 0x5AA21, offset: 0x5AA21, size: 0x8, addend: 0x0, symName: __ZNSt3__110__function12__alloc_funcIPFNS_10unique_ptrIN6Halide8Internal17AbstractGeneratorENS_14default_deleteIS5_EEEERKNS3_16GeneratorContextEENS_9allocatorISD_EESC_EC1B7v160006ERKSD_RKSF_, symObjAddr: 0xCD98, symBinAddr: 0x10000DA78, symSize: 0x3C }
  - { offsetInCU: 0x5AA67, offset: 0x5AA67, size: 0x8, addend: 0x0, symName: __ZNSt3__110__function12__alloc_funcIPFNS_10unique_ptrIN6Halide8Internal17AbstractGeneratorENS_14default_deleteIS5_EEEERKNS3_16GeneratorContextEENS_9allocatorISD_EESC_EC2B7v160006ERKSD_RKSF_, symObjAddr: 0xCDD4, symBinAddr: 0x10000DAB4, symSize: 0x5C }
  - { offsetInCU: 0x5AAAD, offset: 0x5AAAD, size: 0x8, addend: 0x0, symName: __ZNSt3__117__compressed_pairIPFNS_10unique_ptrIN6Halide8Internal17AbstractGeneratorENS_14default_deleteIS4_EEEERKNS2_16GeneratorContextEENS_9allocatorISC_EEEC1B7v160006IJRKSC_EJRKSE_EEENS_21piecewise_construct_tENS_5tupleIJDpT_EEENSM_IJDpT0_EEE, symObjAddr: 0xCE5C, symBinAddr: 0x10000DB3C, symSize: 0x3C }
  - { offsetInCU: 0x5AB17, offset: 0x5AB17, size: 0x8, addend: 0x0, symName: __ZNSt3__15tupleIJRKNS_9allocatorIPFNS_10unique_ptrIN6Halide8Internal17AbstractGeneratorENS_14default_deleteIS5_EEEERKNS3_16GeneratorContextEEEEEEC1B7v160006INS_4_AndELi0EEESG_, symObjAddr: 0xCE98, symBinAddr: 0x10000DB78, symSize: 0x34 }
  - { offsetInCU: 0x5AB5F, offset: 0x5AB5F, size: 0x8, addend: 0x0, symName: __ZNSt3__15tupleIJRKNS_9allocatorIPFNS_10unique_ptrIN6Halide8Internal17AbstractGeneratorENS_14default_deleteIS5_EEEERKNS3_16GeneratorContextEEEEEEC2B7v160006INS_4_AndELi0EEESG_, symObjAddr: 0xCECC, symBinAddr: 0x10000DBAC, symSize: 0x34 }
  - { offsetInCU: 0x5ABA7, offset: 0x5ABA7, size: 0x8, addend: 0x0, symName: __ZNSt3__112__tuple_implINS_15__tuple_indicesIJLm0EEEEJRKNS_9allocatorIPFNS_10unique_ptrIN6Halide8Internal17AbstractGeneratorENS_14default_deleteIS7_EEEERKNS5_16GeneratorContextEEEEEEC1B7v160006IJLm0EEJSI_EJEJEJSI_EEENS1_IJXspT_EEEENS_13__tuple_typesIJDpT0_EEENS1_IJXspT1_EEEENSM_IJDpT2_EEEDpOT3_, symObjAddr: 0xCF00, symBinAddr: 0x10000DBE0, symSize: 0x34 }
  - { offsetInCU: 0x5AC3C, offset: 0x5AC3C, size: 0x8, addend: 0x0, symName: __ZNSt3__112__tuple_implINS_15__tuple_indicesIJLm0EEEEJRKNS_9allocatorIPFNS_10unique_ptrIN6Halide8Internal17AbstractGeneratorENS_14default_deleteIS7_EEEERKNS5_16GeneratorContextEEEEEEC2B7v160006IJLm0EEJSI_EJEJEJSI_EEENS1_IJXspT_EEEENS_13__tuple_typesIJDpT0_EEENS1_IJXspT1_EEEENSM_IJDpT2_EEEDpOT3_, symObjAddr: 0xCF34, symBinAddr: 0x10000DC14, symSize: 0x34 }
  - { offsetInCU: 0x5ACD1, offset: 0x5ACD1, size: 0x8, addend: 0x0, symName: __ZNSt3__112__tuple_leafILm0ERKNS_9allocatorIPFNS_10unique_ptrIN6Halide8Internal17AbstractGeneratorENS_14default_deleteIS5_EEEERKNS3_16GeneratorContextEEEELb0EEC2B7v160006ISG_vEEOT_, symObjAddr: 0xCF68, symBinAddr: 0x10000DC48, symSize: 0x20 }
  - { offsetInCU: 0x5AD14, offset: 0x5AD14, size: 0x8, addend: 0x0, symName: __ZNSt3__117__compressed_pairIPFNS_10unique_ptrIN6Halide8Internal17AbstractGeneratorENS_14default_deleteIS4_EEEERKNS2_16GeneratorContextEENS_9allocatorISC_EEEC2B7v160006IJRKSC_EJRKSE_EEENS_21piecewise_construct_tENS_5tupleIJDpT_EEENSM_IJDpT0_EEE, symObjAddr: 0xCF88, symBinAddr: 0x10000DC68, symSize: 0x54 }
  - { offsetInCU: 0x5AD7E, offset: 0x5AD7E, size: 0x8, addend: 0x0, symName: __ZNSt3__122__compressed_pair_elemINS_9allocatorIPFNS_10unique_ptrIN6Halide8Internal17AbstractGeneratorENS_14default_deleteIS5_EEEERKNS3_16GeneratorContextEEEELi1ELb1EEC2B7v160006IJRKSE_EJLm0EEEENS_21piecewise_construct_tENS_5tupleIJDpT_EEENS_15__tuple_indicesIJXspT0_EEEE, symObjAddr: 0xCFDC, symBinAddr: 0x10000DCBC, symSize: 0x38 }
  - { offsetInCU: 0x5ADE3, offset: 0x5ADE3, size: 0x8, addend: 0x0, symName: __ZNSt3__112__tuple_leafILm0ERKNS_9allocatorIPFNS_10unique_ptrIN6Halide8Internal17AbstractGeneratorENS_14default_deleteIS5_EEEERKNS3_16GeneratorContextEEEELb0EE3getB7v160006Ev, symObjAddr: 0xD038, symBinAddr: 0x10000DD18, symSize: 0x18 }
  - { offsetInCU: 0x5AE09, offset: 0x5AE09, size: 0x8, addend: 0x0, symName: __ZNSt3__110__function12__alloc_funcIPFNS_10unique_ptrIN6Halide8Internal17AbstractGeneratorENS_14default_deleteIS5_EEEERKNS3_16GeneratorContextEENS_9allocatorISD_EESC_E7destroyB7v160006Ev, symObjAddr: 0xD050, symBinAddr: 0x10000DD30, symSize: 0x10 }
  - { offsetInCU: 0x5AE2F, offset: 0x5AE2F, size: 0x8, addend: 0x0, symName: __ZNSt3__110__function12__alloc_funcIPFNS_10unique_ptrIN6Halide8Internal17AbstractGeneratorENS_14default_deleteIS5_EEEERKNS3_16GeneratorContextEENS_9allocatorISD_EESC_EclB7v160006ESB_, symObjAddr: 0xD060, symBinAddr: 0x10000DD40, symSize: 0x3C }
  - { offsetInCU: 0x5AE63, offset: 0x5AE63, size: 0x8, addend: 0x0, symName: __ZNSt3__128__invoke_void_return_wrapperINS_10unique_ptrIN6Halide8Internal17AbstractGeneratorENS_14default_deleteIS4_EEEELb0EE6__callIJRPFS7_RKNS2_16GeneratorContextEESC_EEES7_DpOT_, symObjAddr: 0xD09C, symBinAddr: 0x10000DD7C, symSize: 0x34 }
  - { offsetInCU: 0x5AEA6, offset: 0x5AEA6, size: 0x8, addend: 0x0, symName: __ZNSt3__117__compressed_pairIPFNS_10unique_ptrIN6Halide8Internal17AbstractGeneratorENS_14default_deleteIS4_EEEERKNS2_16GeneratorContextEENS_9allocatorISC_EEE5firstB7v160006Ev, symObjAddr: 0xD0D0, symBinAddr: 0x10000DDB0, symSize: 0x24 }
  - { offsetInCU: 0x5AECC, offset: 0x5AECC, size: 0x8, addend: 0x0, symName: __ZNSt3__122__compressed_pair_elemIPFNS_10unique_ptrIN6Halide8Internal17AbstractGeneratorENS_14default_deleteIS4_EEEERKNS2_16GeneratorContextEELi0ELb0EE5__getB7v160006Ev, symObjAddr: 0xD12C, symBinAddr: 0x10000DE0C, symSize: 0x14 }
  - { offsetInCU: 0x5AF28, offset: 0x5AF28, size: 0x8, addend: 0x0, symName: __ZNKSt9type_infoeqB7v160006ERKS_, symObjAddr: 0xD140, symBinAddr: 0x10000DE20, symSize: 0xDC }
  - { offsetInCU: 0x5AFBF, offset: 0x5AFBF, size: 0x8, addend: 0x0, symName: __ZNSt27__type_info_implementations30__non_unique_arm_rtti_bit_impl21__is_type_name_uniqueB7v160006Em, symObjAddr: 0xD21C, symBinAddr: 0x10000DEFC, symSize: 0x20 }
  - { offsetInCU: 0x5AFE3, offset: 0x5AFE3, size: 0x8, addend: 0x0, symName: __ZNSt3__18functionIFNS_10unique_ptrIN6Halide8Internal17AbstractGeneratorENS_14default_deleteIS4_EEEERKNS2_16GeneratorContextEEED2Ev, symObjAddr: 0xD23C, symBinAddr: 0x10000DF1C, symSize: 0x2C }
  - { offsetInCU: 0x5B00F, offset: 0x5B00F, size: 0x8, addend: 0x0, symName: __ZNSt3__110__function12__value_funcIFNS_10unique_ptrIN6Halide8Internal17AbstractGeneratorENS_14default_deleteIS5_EEEERKNS3_16GeneratorContextEEED1B7v160006Ev, symObjAddr: 0xD268, symBinAddr: 0x10000DF48, symSize: 0x2C }
  - { offsetInCU: 0x5B039, offset: 0x5B039, size: 0x8, addend: 0x0, symName: __ZNSt3__110__function12__value_funcIFNS_10unique_ptrIN6Halide8Internal17AbstractGeneratorENS_14default_deleteIS5_EEEERKNS3_16GeneratorContextEEED2B7v160006Ev, symObjAddr: 0xD294, symBinAddr: 0x10000DF74, symSize: 0x90 }
...
